
bomb:     file format elf64-x86-64


Disassembly of section .init:

0000000000400a98 <_init>:
  400a98:	48 83 ec 08          	sub    $0x8,%rsp
  400a9c:	48 8b 05 55 35 20 00 	mov    0x203555(%rip),%rax        # 603ff8 <__gmon_start__>
  400aa3:	48 85 c0             	test   %rax,%rax
  400aa6:	74 05                	je     400aad <_init+0x15>
  400aa8:	e8 13 01 00 00       	callq  400bc0 <__gmon_start__@plt>
  400aad:	48 83 c4 08          	add    $0x8,%rsp
  400ab1:	c3                   	retq   

Disassembly of section .plt:

0000000000400ac0 <.plt>:
  400ac0:	ff 35 42 35 20 00    	pushq  0x203542(%rip)        # 604008 <_GLOBAL_OFFSET_TABLE_+0x8>
  400ac6:	ff 25 44 35 20 00    	jmpq   *0x203544(%rip)        # 604010 <_GLOBAL_OFFSET_TABLE_+0x10>
  400acc:	0f 1f 40 00          	nopl   0x0(%rax)

0000000000400ad0 <getenv@plt>:
  400ad0:	ff 25 42 35 20 00    	jmpq   *0x203542(%rip)        # 604018 <getenv@GLIBC_2.2.5>
  400ad6:	68 00 00 00 00       	pushq  $0x0
  400adb:	e9 e0 ff ff ff       	jmpq   400ac0 <.plt>

0000000000400ae0 <strcasecmp@plt>:
  400ae0:	ff 25 3a 35 20 00    	jmpq   *0x20353a(%rip)        # 604020 <strcasecmp@GLIBC_2.2.5>
  400ae6:	68 01 00 00 00       	pushq  $0x1
  400aeb:	e9 d0 ff ff ff       	jmpq   400ac0 <.plt>

0000000000400af0 <__errno_location@plt>:
  400af0:	ff 25 32 35 20 00    	jmpq   *0x203532(%rip)        # 604028 <__errno_location@GLIBC_2.2.5>
  400af6:	68 02 00 00 00       	pushq  $0x2
  400afb:	e9 c0 ff ff ff       	jmpq   400ac0 <.plt>

0000000000400b00 <strcpy@plt>:
  400b00:	ff 25 2a 35 20 00    	jmpq   *0x20352a(%rip)        # 604030 <strcpy@GLIBC_2.2.5>
  400b06:	68 03 00 00 00       	pushq  $0x3
  400b0b:	e9 b0 ff ff ff       	jmpq   400ac0 <.plt>

0000000000400b10 <puts@plt>:
  400b10:	ff 25 22 35 20 00    	jmpq   *0x203522(%rip)        # 604038 <puts@GLIBC_2.2.5>
  400b16:	68 04 00 00 00       	pushq  $0x4
  400b1b:	e9 a0 ff ff ff       	jmpq   400ac0 <.plt>

0000000000400b20 <write@plt>:
  400b20:	ff 25 1a 35 20 00    	jmpq   *0x20351a(%rip)        # 604040 <write@GLIBC_2.2.5>
  400b26:	68 05 00 00 00       	pushq  $0x5
  400b2b:	e9 90 ff ff ff       	jmpq   400ac0 <.plt>

0000000000400b30 <printf@plt>:
  400b30:	ff 25 12 35 20 00    	jmpq   *0x203512(%rip)        # 604048 <printf@GLIBC_2.2.5>
  400b36:	68 06 00 00 00       	pushq  $0x6
  400b3b:	e9 80 ff ff ff       	jmpq   400ac0 <.plt>

0000000000400b40 <alarm@plt>:
  400b40:	ff 25 0a 35 20 00    	jmpq   *0x20350a(%rip)        # 604050 <alarm@GLIBC_2.2.5>
  400b46:	68 07 00 00 00       	pushq  $0x7
  400b4b:	e9 70 ff ff ff       	jmpq   400ac0 <.plt>

0000000000400b50 <close@plt>:
  400b50:	ff 25 02 35 20 00    	jmpq   *0x203502(%rip)        # 604058 <close@GLIBC_2.2.5>
  400b56:	68 08 00 00 00       	pushq  $0x8
  400b5b:	e9 60 ff ff ff       	jmpq   400ac0 <.plt>

0000000000400b60 <read@plt>:
  400b60:	ff 25 fa 34 20 00    	jmpq   *0x2034fa(%rip)        # 604060 <read@GLIBC_2.2.5>
  400b66:	68 09 00 00 00       	pushq  $0x9
  400b6b:	e9 50 ff ff ff       	jmpq   400ac0 <.plt>

0000000000400b70 <__libc_start_main@plt>:
  400b70:	ff 25 f2 34 20 00    	jmpq   *0x2034f2(%rip)        # 604068 <__libc_start_main@GLIBC_2.2.5>
  400b76:	68 0a 00 00 00       	pushq  $0xa
  400b7b:	e9 40 ff ff ff       	jmpq   400ac0 <.plt>

0000000000400b80 <fgets@plt>:
  400b80:	ff 25 ea 34 20 00    	jmpq   *0x2034ea(%rip)        # 604070 <fgets@GLIBC_2.2.5>
  400b86:	68 0b 00 00 00       	pushq  $0xb
  400b8b:	e9 30 ff ff ff       	jmpq   400ac0 <.plt>

0000000000400b90 <signal@plt>:
  400b90:	ff 25 e2 34 20 00    	jmpq   *0x2034e2(%rip)        # 604078 <signal@GLIBC_2.2.5>
  400b96:	68 0c 00 00 00       	pushq  $0xc
  400b9b:	e9 20 ff ff ff       	jmpq   400ac0 <.plt>

0000000000400ba0 <gethostbyname@plt>:
  400ba0:	ff 25 da 34 20 00    	jmpq   *0x2034da(%rip)        # 604080 <gethostbyname@GLIBC_2.2.5>
  400ba6:	68 0d 00 00 00       	pushq  $0xd
  400bab:	e9 10 ff ff ff       	jmpq   400ac0 <.plt>

0000000000400bb0 <fprintf@plt>:
  400bb0:	ff 25 d2 34 20 00    	jmpq   *0x2034d2(%rip)        # 604088 <fprintf@GLIBC_2.2.5>
  400bb6:	68 0e 00 00 00       	pushq  $0xe
  400bbb:	e9 00 ff ff ff       	jmpq   400ac0 <.plt>

0000000000400bc0 <__gmon_start__@plt>:
  400bc0:	ff 25 ca 34 20 00    	jmpq   *0x2034ca(%rip)        # 604090 <__gmon_start__>
  400bc6:	68 0f 00 00 00       	pushq  $0xf
  400bcb:	e9 f0 fe ff ff       	jmpq   400ac0 <.plt>

0000000000400bd0 <memcpy@plt>:
  400bd0:	ff 25 c2 34 20 00    	jmpq   *0x2034c2(%rip)        # 604098 <memcpy@GLIBC_2.14>
  400bd6:	68 10 00 00 00       	pushq  $0x10
  400bdb:	e9 e0 fe ff ff       	jmpq   400ac0 <.plt>

0000000000400be0 <fflush@plt>:
  400be0:	ff 25 ba 34 20 00    	jmpq   *0x2034ba(%rip)        # 6040a0 <fflush@GLIBC_2.2.5>
  400be6:	68 11 00 00 00       	pushq  $0x11
  400beb:	e9 d0 fe ff ff       	jmpq   400ac0 <.plt>

0000000000400bf0 <__isoc99_sscanf@plt>:
  400bf0:	ff 25 b2 34 20 00    	jmpq   *0x2034b2(%rip)        # 6040a8 <__isoc99_sscanf@GLIBC_2.7>
  400bf6:	68 12 00 00 00       	pushq  $0x12
  400bfb:	e9 c0 fe ff ff       	jmpq   400ac0 <.plt>

0000000000400c00 <bcopy@plt>:
  400c00:	ff 25 aa 34 20 00    	jmpq   *0x2034aa(%rip)        # 6040b0 <bcopy@GLIBC_2.2.5>
  400c06:	68 13 00 00 00       	pushq  $0x13
  400c0b:	e9 b0 fe ff ff       	jmpq   400ac0 <.plt>

0000000000400c10 <fopen@plt>:
  400c10:	ff 25 a2 34 20 00    	jmpq   *0x2034a2(%rip)        # 6040b8 <fopen@GLIBC_2.2.5>
  400c16:	68 14 00 00 00       	pushq  $0x14
  400c1b:	e9 a0 fe ff ff       	jmpq   400ac0 <.plt>

0000000000400c20 <gethostname@plt>:
  400c20:	ff 25 9a 34 20 00    	jmpq   *0x20349a(%rip)        # 6040c0 <gethostname@GLIBC_2.2.5>
  400c26:	68 15 00 00 00       	pushq  $0x15
  400c2b:	e9 90 fe ff ff       	jmpq   400ac0 <.plt>

0000000000400c30 <sprintf@plt>:
  400c30:	ff 25 92 34 20 00    	jmpq   *0x203492(%rip)        # 6040c8 <sprintf@GLIBC_2.2.5>
  400c36:	68 16 00 00 00       	pushq  $0x16
  400c3b:	e9 80 fe ff ff       	jmpq   400ac0 <.plt>

0000000000400c40 <exit@plt>:
  400c40:	ff 25 8a 34 20 00    	jmpq   *0x20348a(%rip)        # 6040d0 <exit@GLIBC_2.2.5>
  400c46:	68 17 00 00 00       	pushq  $0x17
  400c4b:	e9 70 fe ff ff       	jmpq   400ac0 <.plt>

0000000000400c50 <connect@plt>:
  400c50:	ff 25 82 34 20 00    	jmpq   *0x203482(%rip)        # 6040d8 <connect@GLIBC_2.2.5>
  400c56:	68 18 00 00 00       	pushq  $0x18
  400c5b:	e9 60 fe ff ff       	jmpq   400ac0 <.plt>

0000000000400c60 <sleep@plt>:
  400c60:	ff 25 7a 34 20 00    	jmpq   *0x20347a(%rip)        # 6040e0 <sleep@GLIBC_2.2.5>
  400c66:	68 19 00 00 00       	pushq  $0x19
  400c6b:	e9 50 fe ff ff       	jmpq   400ac0 <.plt>

0000000000400c70 <__ctype_b_loc@plt>:
  400c70:	ff 25 72 34 20 00    	jmpq   *0x203472(%rip)        # 6040e8 <__ctype_b_loc@GLIBC_2.3>
  400c76:	68 1a 00 00 00       	pushq  $0x1a
  400c7b:	e9 40 fe ff ff       	jmpq   400ac0 <.plt>

0000000000400c80 <socket@plt>:
  400c80:	ff 25 6a 34 20 00    	jmpq   *0x20346a(%rip)        # 6040f0 <socket@GLIBC_2.2.5>
  400c86:	68 1b 00 00 00       	pushq  $0x1b
  400c8b:	e9 30 fe ff ff       	jmpq   400ac0 <.plt>

Disassembly of section .text:

0000000000400c90 <_start>:
  400c90:	31 ed                	xor    %ebp,%ebp
  400c92:	49 89 d1             	mov    %rdx,%r9
  400c95:	5e                   	pop    %rsi
  400c96:	48 89 e2             	mov    %rsp,%rdx
  400c99:	48 83 e4 f0          	and    $0xfffffffffffffff0,%rsp
  400c9d:	50                   	push   %rax
  400c9e:	54                   	push   %rsp
  400c9f:	49 c7 c0 f0 28 40 00 	mov    $0x4028f0,%r8
  400ca6:	48 c7 c1 80 28 40 00 	mov    $0x402880,%rcx
  400cad:	48 c7 c7 7d 0d 40 00 	mov    $0x400d7d,%rdi
  400cb4:	e8 b7 fe ff ff       	callq  400b70 <__libc_start_main@plt>
  400cb9:	f4                   	hlt    
  400cba:	66 0f 1f 44 00 00    	nopw   0x0(%rax,%rax,1)

0000000000400cc0 <deregister_tm_clones>:
  400cc0:	b8 07 46 60 00       	mov    $0x604607,%eax
  400cc5:	55                   	push   %rbp
  400cc6:	48 2d 00 46 60 00    	sub    $0x604600,%rax
  400ccc:	48 83 f8 0e          	cmp    $0xe,%rax
  400cd0:	48 89 e5             	mov    %rsp,%rbp
  400cd3:	77 02                	ja     400cd7 <deregister_tm_clones+0x17>
  400cd5:	5d                   	pop    %rbp
  400cd6:	c3                   	retq   
  400cd7:	b8 00 00 00 00       	mov    $0x0,%eax
  400cdc:	48 85 c0             	test   %rax,%rax
  400cdf:	74 f4                	je     400cd5 <deregister_tm_clones+0x15>
  400ce1:	5d                   	pop    %rbp
  400ce2:	bf 00 46 60 00       	mov    $0x604600,%edi
  400ce7:	ff e0                	jmpq   *%rax
  400ce9:	0f 1f 80 00 00 00 00 	nopl   0x0(%rax)

0000000000400cf0 <register_tm_clones>:
  400cf0:	b8 00 46 60 00       	mov    $0x604600,%eax
  400cf5:	55                   	push   %rbp
  400cf6:	48 2d 00 46 60 00    	sub    $0x604600,%rax
  400cfc:	48 c1 f8 03          	sar    $0x3,%rax
  400d00:	48 89 e5             	mov    %rsp,%rbp
  400d03:	48 89 c2             	mov    %rax,%rdx
  400d06:	48 c1 ea 3f          	shr    $0x3f,%rdx
  400d0a:	48 01 d0             	add    %rdx,%rax
  400d0d:	48 d1 f8             	sar    %rax
  400d10:	75 02                	jne    400d14 <register_tm_clones+0x24>
  400d12:	5d                   	pop    %rbp
  400d13:	c3                   	retq   
  400d14:	ba 00 00 00 00       	mov    $0x0,%edx
  400d19:	48 85 d2             	test   %rdx,%rdx
  400d1c:	74 f4                	je     400d12 <register_tm_clones+0x22>
  400d1e:	5d                   	pop    %rbp
  400d1f:	48 89 c6             	mov    %rax,%rsi
  400d22:	bf 00 46 60 00       	mov    $0x604600,%edi
  400d27:	ff e2                	jmpq   *%rdx
  400d29:	0f 1f 80 00 00 00 00 	nopl   0x0(%rax)

0000000000400d30 <__do_global_dtors_aux>:
  400d30:	80 3d e1 38 20 00 00 	cmpb   $0x0,0x2038e1(%rip)        # 604618 <completed.6355>
  400d37:	75 11                	jne    400d4a <__do_global_dtors_aux+0x1a>
  400d39:	55                   	push   %rbp
  400d3a:	48 89 e5             	mov    %rsp,%rbp
  400d3d:	e8 7e ff ff ff       	callq  400cc0 <deregister_tm_clones>
  400d42:	5d                   	pop    %rbp
  400d43:	c6 05 ce 38 20 00 01 	movb   $0x1,0x2038ce(%rip)        # 604618 <completed.6355>
  400d4a:	f3 c3                	repz retq 
  400d4c:	0f 1f 40 00          	nopl   0x0(%rax)

0000000000400d50 <frame_dummy>:
  400d50:	48 83 3d c8 30 20 00 	cmpq   $0x0,0x2030c8(%rip)        # 603e20 <__JCR_END__>
  400d57:	00 
  400d58:	74 1e                	je     400d78 <frame_dummy+0x28>
  400d5a:	b8 00 00 00 00       	mov    $0x0,%eax
  400d5f:	48 85 c0             	test   %rax,%rax
  400d62:	74 14                	je     400d78 <frame_dummy+0x28>
  400d64:	55                   	push   %rbp
  400d65:	bf 20 3e 60 00       	mov    $0x603e20,%edi
  400d6a:	48 89 e5             	mov    %rsp,%rbp
  400d6d:	ff d0                	callq  *%rax
  400d6f:	5d                   	pop    %rbp
  400d70:	e9 7b ff ff ff       	jmpq   400cf0 <register_tm_clones>
  400d75:	0f 1f 00             	nopl   (%rax)
  400d78:	e9 73 ff ff ff       	jmpq   400cf0 <register_tm_clones>

0000000000400d7d <main>:
  400d7d:	55                   	push   %rbp
  400d7e:	53                   	push   %rbx
  400d7f:	48 83 ec 08          	sub    $0x8,%rsp
  400d83:	89 fb                	mov    %edi,%ebx
  400d85:	83 ff 01             	cmp    $0x1,%edi
  400d88:	75 10                	jne    400d9a <main+0x1d>
  400d8a:	48 8b 05 77 38 20 00 	mov    0x203877(%rip),%rax        # 604608 <stdin@@GLIBC_2.2.5>
  400d91:	48 89 05 90 38 20 00 	mov    %rax,0x203890(%rip)        # 604628 <infile>
  400d98:	eb 5a                	jmp    400df4 <main+0x77>
  400d9a:	48 89 f5             	mov    %rsi,%rbp
  400d9d:	83 ff 02             	cmp    $0x2,%edi
  400da0:	75 36                	jne    400dd8 <main+0x5b>
  400da2:	48 8b 7e 08          	mov    0x8(%rsi),%rdi
  400da6:	be 10 29 40 00       	mov    $0x402910,%esi
  400dab:	e8 60 fe ff ff       	callq  400c10 <fopen@plt>
  400db0:	48 89 05 71 38 20 00 	mov    %rax,0x203871(%rip)        # 604628 <infile>
  400db7:	48 85 c0             	test   %rax,%rax
  400dba:	75 38                	jne    400df4 <main+0x77>
  400dbc:	48 8b 55 08          	mov    0x8(%rbp),%rdx
  400dc0:	48 8b 75 00          	mov    0x0(%rbp),%rsi
  400dc4:	bf 12 29 40 00       	mov    $0x402912,%edi
  400dc9:	e8 62 fd ff ff       	callq  400b30 <printf@plt>
  400dce:	bf 08 00 00 00       	mov    $0x8,%edi
  400dd3:	e8 68 fe ff ff       	callq  400c40 <exit@plt>
  400dd8:	48 8b 36             	mov    (%rsi),%rsi
  400ddb:	bf 2f 29 40 00       	mov    $0x40292f,%edi
  400de0:	b8 00 00 00 00       	mov    $0x0,%eax
  400de5:	e8 46 fd ff ff       	callq  400b30 <printf@plt>
  400dea:	bf 08 00 00 00       	mov    $0x8,%edi
  400def:	e8 4c fe ff ff       	callq  400c40 <exit@plt>
  400df4:	e8 11 05 00 00       	callq  40130a <initialize_bomb>
  400df9:	89 df                	mov    %ebx,%edi
  400dfb:	b8 00 00 00 00       	mov    $0x0,%eax
  400e00:	e8 c6 05 00 00       	callq  4013cb <welcome_message>
  400e05:	e8 f2 0d 00 00       	callq  401bfc <read_line>
  400e0a:	48 89 c7             	mov    %rax,%rdi
  400e0d:	e8 ae 00 00 00       	callq  400ec0 <phase_1>
  400e12:	e8 ab 07 00 00       	callq  4015c2 <phase_defused>
  400e17:	bf 68 29 40 00       	mov    $0x402968,%edi
  400e1c:	e8 ef fc ff ff       	callq  400b10 <puts@plt>
  400e21:	e8 d6 0d 00 00       	callq  401bfc <read_line>
  400e26:	48 89 c7             	mov    %rax,%rdi
  400e29:	e8 00 01 00 00       	callq  400f2e <phase_2>
  400e2e:	e8 8f 07 00 00       	callq  4015c2 <phase_defused>
  400e33:	bf a8 29 40 00       	mov    $0x4029a8,%edi
  400e38:	e8 d3 fc ff ff       	callq  400b10 <puts@plt>
  400e3d:	e8 ba 0d 00 00       	callq  401bfc <read_line>
  400e42:	48 89 c7             	mov    %rax,%rdi
  400e45:	e8 3a 01 00 00       	callq  400f84 <phase_3>
  400e4a:	e8 73 07 00 00       	callq  4015c2 <phase_defused>
  400e4f:	bf d0 29 40 00       	mov    $0x4029d0,%edi
  400e54:	e8 b7 fc ff ff       	callq  400b10 <puts@plt>
  400e59:	e8 9e 0d 00 00       	callq  401bfc <read_line>
  400e5e:	48 89 c7             	mov    %rax,%rdi
  400e61:	e8 69 01 00 00       	callq  400fcf <phase_4>
  400e66:	e8 57 07 00 00       	callq  4015c2 <phase_defused>
  400e6b:	bf f8 29 40 00       	mov    $0x4029f8,%edi
  400e70:	e8 9b fc ff ff       	callq  400b10 <puts@plt>
  400e75:	e8 82 0d 00 00       	callq  401bfc <read_line>
  400e7a:	48 89 c7             	mov    %rax,%rdi
  400e7d:	e8 ca 01 00 00       	callq  40104c <phase_5>
  400e82:	e8 3b 07 00 00       	callq  4015c2 <phase_defused>
  400e87:	bf 30 2a 40 00       	mov    $0x402a30,%edi
  400e8c:	e8 7f fc ff ff       	callq  400b10 <puts@plt>
  400e91:	e8 66 0d 00 00       	callq  401bfc <read_line>
  400e96:	48 89 c7             	mov    %rax,%rdi
  400e99:	e8 f6 01 00 00       	callq  401094 <phase_6>
  400e9e:	e8 1f 07 00 00       	callq  4015c2 <phase_defused>
  400ea3:	bf 49 29 40 00       	mov    $0x402949,%edi
  400ea8:	e8 63 fc ff ff       	callq  400b10 <puts@plt>
  400ead:	b8 00 00 00 00       	mov    $0x0,%eax
  400eb2:	48 83 c4 08          	add    $0x8,%rsp
  400eb6:	5b                   	pop    %rbx
  400eb7:	5d                   	pop    %rbp
  400eb8:	c3                   	retq   
  400eb9:	0f 1f 80 00 00 00 00 	nopl   0x0(%rax)

0000000000400ec0 <phase_1>:
  400ec0:	53                   	push   %rbx
  400ec1:	48 89 fb             	mov    %rdi,%rbx
  400ec4:	80 7f 01 00          	cmpb   $0x0,0x1(%rdi)
  400ec8:	74 05                	je     400ecf <phase_1+0xf>
  400eca:	e8 2c 07 00 00       	callq  4015fb <explode_bomb>
  400ecf:	80 3b 7a             	cmpb   $0x7a,(%rbx)
  400ed2:	74 05                	je     400ed9 <phase_1+0x19>
  400ed4:	e8 22 07 00 00       	callq  4015fb <explode_bomb>
  400ed9:	5b                   	pop    %rbx
  400eda:	c3                   	retq   

0000000000400edb <func_switch>:
  400edb:	83 ff 07             	cmp    $0x7,%edi
  400ede:	77 33                	ja     400f13 <func_switch+0x38>
  400ee0:	89 ff                	mov    %edi,%edi
  400ee2:	ff 24 fd 60 2a 40 00 	jmpq   *0x402a60(,%rdi,8)
  400ee9:	b8 78 03 00 00       	mov    $0x378,%eax
  400eee:	c3                   	retq   
  400eef:	b8 47 01 00 00       	mov    $0x147,%eax
  400ef4:	c3                   	retq   
  400ef5:	b8 5a 03 00 00       	mov    $0x35a,%eax
  400efa:	c3                   	retq   
  400efb:	b8 f1 02 00 00       	mov    $0x2f1,%eax
  400f00:	c3                   	retq   
  400f01:	b8 3f 02 00 00       	mov    $0x23f,%eax
  400f06:	c3                   	retq   
  400f07:	b8 4b 03 00 00       	mov    $0x34b,%eax
  400f0c:	c3                   	retq   
  400f0d:	b8 f1 02 00 00       	mov    $0x2f1,%eax
  400f12:	c3                   	retq   
  400f13:	48 83 ec 08          	sub    $0x8,%rsp
  400f17:	e8 df 06 00 00       	callq  4015fb <explode_bomb>
  400f1c:	b8 00 00 00 00       	mov    $0x0,%eax
  400f21:	eb 06                	jmp    400f29 <func_switch+0x4e>
  400f23:	b8 f0 02 00 00       	mov    $0x2f0,%eax
  400f28:	c3                   	retq   
  400f29:	48 83 c4 08          	add    $0x8,%rsp
  400f2d:	c3                   	retq   

0000000000400f2e <phase_2>:
  400f2e:	53                   	push   %rbx
  400f2f:	48 83 ec 10          	sub    $0x10,%rsp
  400f33:	c7 44 24 0c 00 00 00 	movl   $0x0,0xc(%rsp)
  400f3a:	00 
  400f3b:	c7 44 24 08 00 00 00 	movl   $0x0,0x8(%rsp)
  400f42:	00 
  400f43:	48 8d 54 24 08       	lea    0x8(%rsp),%rdx
  400f48:	48 8d 74 24 0c       	lea    0xc(%rsp),%rsi
  400f4d:	e8 82 0c 00 00       	callq  401bd4 <read_two_numbers>
  400f52:	8b 44 24 08          	mov    0x8(%rsp),%eax
  400f56:	39 44 24 0c          	cmp    %eax,0xc(%rsp)
  400f5a:	75 05                	jne    400f61 <phase_2+0x33>
  400f5c:	e8 9a 06 00 00       	callq  4015fb <explode_bomb>
  400f61:	8b 7c 24 0c          	mov    0xc(%rsp),%edi
  400f65:	e8 71 ff ff ff       	callq  400edb <func_switch>
  400f6a:	89 c3                	mov    %eax,%ebx
  400f6c:	8b 7c 24 08          	mov    0x8(%rsp),%edi
  400f70:	e8 66 ff ff ff       	callq  400edb <func_switch>
  400f75:	39 c3                	cmp    %eax,%ebx
  400f77:	74 05                	je     400f7e <phase_2+0x50>
  400f79:	e8 7d 06 00 00       	callq  4015fb <explode_bomb>
  400f7e:	48 83 c4 10          	add    $0x10,%rsp
  400f82:	5b                   	pop    %rbx
  400f83:	c3                   	retq   

0000000000400f84 <phase_3>:
  400f84:	55                   	push   %rbp
  400f85:	53                   	push   %rbx
  400f86:	48 83 ec 28          	sub    $0x28,%rsp
  400f8a:	48 89 e6             	mov    %rsp,%rsi
  400f8d:	e8 00 0c 00 00       	callq  401b92 <read_six_numbers>
  400f92:	83 3c 24 00          	cmpl   $0x0,(%rsp)
  400f96:	79 05                	jns    400f9d <phase_3+0x19>
  400f98:	e8 5e 06 00 00       	callq  4015fb <explode_bomb>
  400f9d:	8b 04 24             	mov    (%rsp),%eax
  400fa0:	bb 01 00 00 00       	mov    $0x1,%ebx
  400fa5:	eb 16                	jmp    400fbd <phase_3+0x39>
  400fa7:	48 63 d3             	movslq %ebx,%rdx
  400faa:	8b 2c 94             	mov    (%rsp,%rdx,4),%ebp
  400fad:	01 d8                	add    %ebx,%eax
  400faf:	39 e8                	cmp    %ebp,%eax
  400fb1:	74 05                	je     400fb8 <phase_3+0x34>
  400fb3:	e8 43 06 00 00       	callq  4015fb <explode_bomb>
  400fb8:	83 c3 01             	add    $0x1,%ebx
  400fbb:	89 e8                	mov    %ebp,%eax
  400fbd:	83 fb 05             	cmp    $0x5,%ebx
  400fc0:	7e e5                	jle    400fa7 <phase_3+0x23>
  400fc2:	89 05 54 36 20 00    	mov    %eax,0x203654(%rip)        # 60461c <last>
  400fc8:	48 83 c4 28          	add    $0x28,%rsp
  400fcc:	5b                   	pop    %rbx
  400fcd:	5d                   	pop    %rbp
  400fce:	c3                   	retq   

0000000000400fcf <phase_4>:
  400fcf:	53                   	push   %rbx
  400fd0:	48 89 fb             	mov    %rdi,%rbx
  400fd3:	e8 c9 02 00 00       	callq  4012a1 <string_length>
  400fd8:	83 f8 03             	cmp    $0x3,%eax
  400fdb:	74 05                	je     400fe2 <phase_4+0x13>
  400fdd:	e8 19 06 00 00       	callq  4015fb <explode_bomb>
  400fe2:	ba 01 00 00 00       	mov    $0x1,%edx
  400fe7:	b8 00 00 00 00       	mov    $0x0,%eax
  400fec:	eb 15                	jmp    401003 <phase_4+0x34>
  400fee:	48 63 c8             	movslq %eax,%rcx
  400ff1:	0f b6 0c 0b          	movzbl (%rbx,%rcx,1),%ecx
  400ff5:	83 e1 0f             	and    $0xf,%ecx
  400ff8:	0f af 14 8d a0 2a 40 	imul   0x402aa0(,%rcx,4),%edx
  400fff:	00 
  401000:	83 c0 01             	add    $0x1,%eax
  401003:	83 f8 02             	cmp    $0x2,%eax
  401006:	7e e6                	jle    400fee <phase_4+0x1f>
  401008:	81 fa 39 82 00 00    	cmp    $0x8239,%edx
  40100e:	74 05                	je     401015 <phase_4+0x46>
  401010:	e8 e6 05 00 00       	callq  4015fb <explode_bomb>
  401015:	5b                   	pop    %rbx
  401016:	c3                   	retq   

0000000000401017 <func_rec>:
  401017:	53                   	push   %rbx
  401018:	89 d0                	mov    %edx,%eax
  40101a:	29 f0                	sub    %esi,%eax
  40101c:	89 c3                	mov    %eax,%ebx
  40101e:	c1 eb 1f             	shr    $0x1f,%ebx
  401021:	01 d8                	add    %ebx,%eax
  401023:	d1 f8                	sar    %eax
  401025:	8d 1c 30             	lea    (%rax,%rsi,1),%ebx
  401028:	39 fb                	cmp    %edi,%ebx
  40102a:	7e 0c                	jle    401038 <func_rec+0x21>
  40102c:	8d 53 ff             	lea    -0x1(%rbx),%edx
  40102f:	e8 e3 ff ff ff       	callq  401017 <func_rec>
  401034:	01 d8                	add    %ebx,%eax
  401036:	eb 12                	jmp    40104a <func_rec+0x33>
  401038:	39 fb                	cmp    %edi,%ebx
  40103a:	7d 0c                	jge    401048 <func_rec+0x31>
  40103c:	8d 73 01             	lea    0x1(%rbx),%esi
  40103f:	e8 d3 ff ff ff       	callq  401017 <func_rec>
  401044:	01 d8                	add    %ebx,%eax
  401046:	eb 02                	jmp    40104a <func_rec+0x33>
  401048:	89 d8                	mov    %ebx,%eax
  40104a:	5b                   	pop    %rbx
  40104b:	c3                   	retq   

000000000040104c <phase_5>:
  40104c:	48 83 ec 18          	sub    $0x18,%rsp
  401050:	48 8d 54 24 08       	lea    0x8(%rsp),%rdx
  401055:	48 8d 74 24 0c       	lea    0xc(%rsp),%rsi
  40105a:	e8 75 0b 00 00       	callq  401bd4 <read_two_numbers>
  40105f:	83 7c 24 0c 0e       	cmpl   $0xe,0xc(%rsp)
  401064:	76 05                	jbe    40106b <phase_5+0x1f>
  401066:	e8 90 05 00 00       	callq  4015fb <explode_bomb>
  40106b:	ba 0e 00 00 00       	mov    $0xe,%edx
  401070:	be 00 00 00 00       	mov    $0x0,%esi
  401075:	8b 7c 24 0c          	mov    0xc(%rsp),%edi
  401079:	e8 99 ff ff ff       	callq  401017 <func_rec>
  40107e:	83 f8 12             	cmp    $0x12,%eax
  401081:	75 07                	jne    40108a <phase_5+0x3e>
  401083:	83 7c 24 08 12       	cmpl   $0x12,0x8(%rsp)
  401088:	74 05                	je     40108f <phase_5+0x43>
  40108a:	e8 6c 05 00 00       	callq  4015fb <explode_bomb>
  40108f:	48 83 c4 18          	add    $0x18,%rsp
  401093:	c3                   	retq   

0000000000401094 <phase_6>:
  401094:	41 54                	push   %r12
  401096:	55                   	push   %rbp
  401097:	53                   	push   %rbx
  401098:	48 83 ec 50          	sub    $0x50,%rsp
  40109c:	48 8d 74 24 30       	lea    0x30(%rsp),%rsi
  4010a1:	e8 ec 0a 00 00       	callq  401b92 <read_six_numbers>
  4010a6:	bd 00 00 00 00       	mov    $0x0,%ebp
  4010ab:	eb 3d                	jmp    4010ea <phase_6+0x56>
  4010ad:	48 63 c5             	movslq %ebp,%rax
  4010b0:	8b 44 84 30          	mov    0x30(%rsp,%rax,4),%eax
  4010b4:	83 e8 01             	sub    $0x1,%eax
  4010b7:	83 f8 05             	cmp    $0x5,%eax
  4010ba:	76 05                	jbe    4010c1 <phase_6+0x2d>
  4010bc:	e8 3a 05 00 00       	callq  4015fb <explode_bomb>
  4010c1:	44 8d 65 01          	lea    0x1(%rbp),%r12d
  4010c5:	44 89 e3             	mov    %r12d,%ebx
  4010c8:	48 63 ed             	movslq %ebp,%rbp
  4010cb:	eb 15                	jmp    4010e2 <phase_6+0x4e>
  4010cd:	48 63 c3             	movslq %ebx,%rax
  4010d0:	8b 44 84 30          	mov    0x30(%rsp,%rax,4),%eax
  4010d4:	39 44 ac 30          	cmp    %eax,0x30(%rsp,%rbp,4)
  4010d8:	75 05                	jne    4010df <phase_6+0x4b>
  4010da:	e8 1c 05 00 00       	callq  4015fb <explode_bomb>
  4010df:	83 c3 01             	add    $0x1,%ebx
  4010e2:	83 fb 05             	cmp    $0x5,%ebx
  4010e5:	7e e6                	jle    4010cd <phase_6+0x39>
  4010e7:	44 89 e5             	mov    %r12d,%ebp
  4010ea:	83 fd 05             	cmp    $0x5,%ebp
  4010ed:	7e be                	jle    4010ad <phase_6+0x19>
  4010ef:	be 00 00 00 00       	mov    $0x0,%esi
  4010f4:	eb 26                	jmp    40111c <phase_6+0x88>
  4010f6:	48 8b 52 08          	mov    0x8(%rdx),%rdx
  4010fa:	83 c0 01             	add    $0x1,%eax
  4010fd:	eb 0d                	jmp    40110c <phase_6+0x78>
  4010ff:	b8 01 00 00 00       	mov    $0x1,%eax
  401104:	ba 60 41 60 00       	mov    $0x604160,%edx
  401109:	48 63 ce             	movslq %esi,%rcx
  40110c:	39 44 8c 30          	cmp    %eax,0x30(%rsp,%rcx,4)
  401110:	7f e4                	jg     4010f6 <phase_6+0x62>
  401112:	48 63 c6             	movslq %esi,%rax
  401115:	48 89 14 c4          	mov    %rdx,(%rsp,%rax,8)
  401119:	83 c6 01             	add    $0x1,%esi
  40111c:	83 fe 05             	cmp    $0x5,%esi
  40111f:	7e de                	jle    4010ff <phase_6+0x6b>
  401121:	48 8b 1c 24          	mov    (%rsp),%rbx
  401125:	48 89 d9             	mov    %rbx,%rcx
  401128:	b8 01 00 00 00       	mov    $0x1,%eax
  40112d:	eb 11                	jmp    401140 <phase_6+0xac>
  40112f:	48 63 d0             	movslq %eax,%rdx
  401132:	48 8b 14 d4          	mov    (%rsp,%rdx,8),%rdx
  401136:	48 89 51 08          	mov    %rdx,0x8(%rcx)
  40113a:	83 c0 01             	add    $0x1,%eax
  40113d:	48 89 d1             	mov    %rdx,%rcx
  401140:	83 f8 05             	cmp    $0x5,%eax
  401143:	7e ea                	jle    40112f <phase_6+0x9b>
  401145:	48 c7 41 08 00 00 00 	movq   $0x0,0x8(%rcx)
  40114c:	00 
  40114d:	bd 00 00 00 00       	mov    $0x0,%ebp
  401152:	eb 16                	jmp    40116a <phase_6+0xd6>
  401154:	48 8b 43 08          	mov    0x8(%rbx),%rax
  401158:	8b 00                	mov    (%rax),%eax
  40115a:	39 03                	cmp    %eax,(%rbx)
  40115c:	7e 05                	jle    401163 <phase_6+0xcf>
  40115e:	e8 98 04 00 00       	callq  4015fb <explode_bomb>
  401163:	48 8b 5b 08          	mov    0x8(%rbx),%rbx
  401167:	83 c5 01             	add    $0x1,%ebp
  40116a:	83 fd 04             	cmp    $0x4,%ebp
  40116d:	7e e5                	jle    401154 <phase_6+0xc0>
  40116f:	8b 05 a7 34 20 00    	mov    0x2034a7(%rip),%eax        # 60461c <last>
  401175:	83 f8 21             	cmp    $0x21,%eax
  401178:	75 05                	jne    40117f <phase_6+0xeb>
  40117a:	e8 7c 04 00 00       	callq  4015fb <explode_bomb>
  40117f:	48 83 c4 50          	add    $0x50,%rsp
  401183:	5b                   	pop    %rbx
  401184:	5d                   	pop    %rbp
  401185:	41 5c                	pop    %r12
  401187:	c3                   	retq   

0000000000401188 <s3cret_ph4se>:
  401188:	41 56                	push   %r14
  40118a:	41 55                	push   %r13
  40118c:	41 54                	push   %r12
  40118e:	55                   	push   %rbp
  40118f:	53                   	push   %rbx
  401190:	e8 67 0a 00 00       	callq  401bfc <read_line>
  401195:	49 89 c5             	mov    %rax,%r13
  401198:	bd 01 00 00 00       	mov    $0x1,%ebp
  40119d:	41 bc 01 00 00 00    	mov    $0x1,%r12d
  4011a3:	ba 00 00 00 00       	mov    $0x0,%edx
  4011a8:	eb 6d                	jmp    401217 <s3cret_ph4se+0x8f>
  4011aa:	8d 5a 01             	lea    0x1(%rdx),%ebx
  4011ad:	48 63 d2             	movslq %edx,%rdx
  4011b0:	41 0f b6 54 15 00    	movzbl 0x0(%r13,%rdx,1),%edx
  4011b6:	80 fa 70             	cmp    $0x70,%dl
  4011b9:	75 05                	jne    4011c0 <s3cret_ph4se+0x38>
  4011bb:	83 ed 01             	sub    $0x1,%ebp
  4011be:	eb 25                	jmp    4011e5 <s3cret_ph4se+0x5d>
  4011c0:	80 fa 61             	cmp    $0x61,%dl
  4011c3:	75 06                	jne    4011cb <s3cret_ph4se+0x43>
  4011c5:	41 83 ec 01          	sub    $0x1,%r12d
  4011c9:	eb 1a                	jmp    4011e5 <s3cret_ph4se+0x5d>
  4011cb:	80 fa 68             	cmp    $0x68,%dl
  4011ce:	75 05                	jne    4011d5 <s3cret_ph4se+0x4d>
  4011d0:	83 c5 01             	add    $0x1,%ebp
  4011d3:	eb 10                	jmp    4011e5 <s3cret_ph4se+0x5d>
  4011d5:	80 fa 72             	cmp    $0x72,%dl
  4011d8:	75 06                	jne    4011e0 <s3cret_ph4se+0x58>
  4011da:	41 83 c4 01          	add    $0x1,%r12d
  4011de:	eb 05                	jmp    4011e5 <s3cret_ph4se+0x5d>
  4011e0:	e8 16 04 00 00       	callq  4015fb <explode_bomb>
  4011e5:	44 89 e0             	mov    %r12d,%eax
  4011e8:	89 ea                	mov    %ebp,%edx
  4011ea:	44 0f b6 b4 d0 20 41 	movzbl 0x604120(%rax,%rdx,8),%r14d
  4011f1:	60 00 
  4011f3:	41 80 fe ff          	cmp    $0xff,%r14b
  4011f7:	75 05                	jne    4011fe <s3cret_ph4se+0x76>
  4011f9:	e8 fd 03 00 00       	callq  4015fb <explode_bomb>
  4011fe:	41 80 fe 21          	cmp    $0x21,%r14b
  401202:	75 11                	jne    401215 <s3cret_ph4se+0x8d>
  401204:	bf e0 2a 40 00       	mov    $0x402ae0,%edi
  401209:	e8 02 f9 ff ff       	callq  400b10 <puts@plt>
  40120e:	e8 af 03 00 00       	callq  4015c2 <phase_defused>
  401213:	eb 10                	jmp    401225 <s3cret_ph4se+0x9d>
  401215:	89 da                	mov    %ebx,%edx
  401217:	83 fa 63             	cmp    $0x63,%edx
  40121a:	7e 8e                	jle    4011aa <s3cret_ph4se+0x22>
  40121c:	0f 1f 40 00          	nopl   0x0(%rax)
  401220:	e8 d6 03 00 00       	callq  4015fb <explode_bomb>
  401225:	5b                   	pop    %rbx
  401226:	5d                   	pop    %rbp
  401227:	41 5c                	pop    %r12
  401229:	41 5d                	pop    %r13
  40122b:	41 5e                	pop    %r14
  40122d:	c3                   	retq   
  40122e:	66 90                	xchg   %ax,%ax

0000000000401230 <sig_handler>:
  401230:	48 83 ec 08          	sub    $0x8,%rsp
  401234:	bf 08 2b 40 00       	mov    $0x402b08,%edi
  401239:	e8 d2 f8 ff ff       	callq  400b10 <puts@plt>
  40123e:	bf 03 00 00 00       	mov    $0x3,%edi
  401243:	e8 18 fa ff ff       	callq  400c60 <sleep@plt>
  401248:	bf 8b 30 40 00       	mov    $0x40308b,%edi
  40124d:	b8 00 00 00 00       	mov    $0x0,%eax
  401252:	e8 d9 f8 ff ff       	callq  400b30 <printf@plt>
  401257:	48 8b 3d a2 33 20 00 	mov    0x2033a2(%rip),%rdi        # 604600 <stdout@@GLIBC_2.2.5>
  40125e:	e8 7d f9 ff ff       	callq  400be0 <fflush@plt>
  401263:	bf 01 00 00 00       	mov    $0x1,%edi
  401268:	e8 f3 f9 ff ff       	callq  400c60 <sleep@plt>
  40126d:	bf 93 30 40 00       	mov    $0x403093,%edi
  401272:	e8 99 f8 ff ff       	callq  400b10 <puts@plt>
  401277:	bf 10 00 00 00       	mov    $0x10,%edi
  40127c:	e8 bf f9 ff ff       	callq  400c40 <exit@plt>

0000000000401281 <invalid_phase>:
  401281:	48 83 ec 08          	sub    $0x8,%rsp
  401285:	48 89 fe             	mov    %rdi,%rsi
  401288:	bf 9b 30 40 00       	mov    $0x40309b,%edi
  40128d:	b8 00 00 00 00       	mov    $0x0,%eax
  401292:	e8 99 f8 ff ff       	callq  400b30 <printf@plt>
  401297:	bf 08 00 00 00       	mov    $0x8,%edi
  40129c:	e8 9f f9 ff ff       	callq  400c40 <exit@plt>

00000000004012a1 <string_length>:
  4012a1:	b8 00 00 00 00       	mov    $0x0,%eax
  4012a6:	eb 0e                	jmp    4012b6 <string_length+0x15>
  4012a8:	48 83 c7 01          	add    $0x1,%rdi
  4012ac:	83 c0 01             	add    $0x1,%eax
  4012af:	3d 0f 27 00 00       	cmp    $0x270f,%eax
  4012b4:	7f 05                	jg     4012bb <string_length+0x1a>
  4012b6:	80 3f 00             	cmpb   $0x0,(%rdi)
  4012b9:	75 ed                	jne    4012a8 <string_length+0x7>
  4012bb:	f3 c3                	repz retq 

00000000004012bd <strings_not_equal>:
  4012bd:	41 54                	push   %r12
  4012bf:	55                   	push   %rbp
  4012c0:	53                   	push   %rbx
  4012c1:	48 89 fb             	mov    %rdi,%rbx
  4012c4:	48 89 f5             	mov    %rsi,%rbp
  4012c7:	e8 d5 ff ff ff       	callq  4012a1 <string_length>
  4012cc:	41 89 c4             	mov    %eax,%r12d
  4012cf:	48 89 ef             	mov    %rbp,%rdi
  4012d2:	e8 ca ff ff ff       	callq  4012a1 <string_length>
  4012d7:	41 39 c4             	cmp    %eax,%r12d
  4012da:	75 1d                	jne    4012f9 <strings_not_equal+0x3c>
  4012dc:	eb 0d                	jmp    4012eb <strings_not_equal+0x2e>
  4012de:	3a 45 00             	cmp    0x0(%rbp),%al
  4012e1:	75 1d                	jne    401300 <strings_not_equal+0x43>
  4012e3:	48 83 c3 01          	add    $0x1,%rbx
  4012e7:	48 83 c5 01          	add    $0x1,%rbp
  4012eb:	0f b6 03             	movzbl (%rbx),%eax
  4012ee:	84 c0                	test   %al,%al
  4012f0:	75 ec                	jne    4012de <strings_not_equal+0x21>
  4012f2:	b8 00 00 00 00       	mov    $0x0,%eax
  4012f7:	eb 0c                	jmp    401305 <strings_not_equal+0x48>
  4012f9:	b8 01 00 00 00       	mov    $0x1,%eax
  4012fe:	eb 05                	jmp    401305 <strings_not_equal+0x48>
  401300:	b8 01 00 00 00       	mov    $0x1,%eax
  401305:	5b                   	pop    %rbx
  401306:	5d                   	pop    %rbp
  401307:	41 5c                	pop    %r12
  401309:	c3                   	retq   

000000000040130a <initialize_bomb>:
  40130a:	53                   	push   %rbx
  40130b:	48 81 ec 40 20 00 00 	sub    $0x2040,%rsp
  401312:	be 30 12 40 00       	mov    $0x401230,%esi
  401317:	bf 02 00 00 00       	mov    $0x2,%edi
  40131c:	e8 6f f8 ff ff       	callq  400b90 <signal@plt>
  401321:	be 40 00 00 00       	mov    $0x40,%esi
  401326:	48 8d bc 24 00 20 00 	lea    0x2000(%rsp),%rdi
  40132d:	00 
  40132e:	e8 ed f8 ff ff       	callq  400c20 <gethostname@plt>
  401333:	85 c0                	test   %eax,%eax
  401335:	74 2a                	je     401361 <initialize_bomb+0x57>
  401337:	bf 40 2b 40 00       	mov    $0x402b40,%edi
  40133c:	e8 cf f7 ff ff       	callq  400b10 <puts@plt>
  401341:	bf 08 00 00 00       	mov    $0x8,%edi
  401346:	e8 f5 f8 ff ff       	callq  400c40 <exit@plt>
  40134b:	48 8d b4 24 00 20 00 	lea    0x2000(%rsp),%rsi
  401352:	00 
  401353:	e8 88 f7 ff ff       	callq  400ae0 <strcasecmp@plt>
  401358:	85 c0                	test   %eax,%eax
  40135a:	74 21                	je     40137d <initialize_bomb+0x73>
  40135c:	83 c3 01             	add    $0x1,%ebx
  40135f:	eb 05                	jmp    401366 <initialize_bomb+0x5c>
  401361:	bb 00 00 00 00       	mov    $0x0,%ebx
  401366:	48 63 c3             	movslq %ebx,%rax
  401369:	48 8b 3c c5 00 42 60 	mov    0x604200(,%rax,8),%rdi
  401370:	00 
  401371:	48 85 ff             	test   %rdi,%rdi
  401374:	75 d5                	jne    40134b <initialize_bomb+0x41>
  401376:	b8 00 00 00 00       	mov    $0x0,%eax
  40137b:	eb 05                	jmp    401382 <initialize_bomb+0x78>
  40137d:	b8 01 00 00 00       	mov    $0x1,%eax
  401382:	85 c0                	test   %eax,%eax
  401384:	75 14                	jne    40139a <initialize_bomb+0x90>
  401386:	bf 78 2b 40 00       	mov    $0x402b78,%edi
  40138b:	e8 80 f7 ff ff       	callq  400b10 <puts@plt>
  401390:	bf 08 00 00 00       	mov    $0x8,%edi
  401395:	e8 a6 f8 ff ff       	callq  400c40 <exit@plt>
  40139a:	48 89 e7             	mov    %rsp,%rdi
  40139d:	e8 c9 12 00 00       	callq  40266b <init_driver>
  4013a2:	85 c0                	test   %eax,%eax
  4013a4:	79 1c                	jns    4013c2 <initialize_bomb+0xb8>
  4013a6:	48 89 e6             	mov    %rsp,%rsi
  4013a9:	bf ac 30 40 00       	mov    $0x4030ac,%edi
  4013ae:	b8 00 00 00 00       	mov    $0x0,%eax
  4013b3:	e8 78 f7 ff ff       	callq  400b30 <printf@plt>
  4013b8:	bf 08 00 00 00       	mov    $0x8,%edi
  4013bd:	e8 7e f8 ff ff       	callq  400c40 <exit@plt>
  4013c2:	48 81 c4 40 20 00 00 	add    $0x2040,%rsp
  4013c9:	5b                   	pop    %rbx
  4013ca:	c3                   	retq   

00000000004013cb <welcome_message>:
  4013cb:	83 ff 01             	cmp    $0x1,%edi
  4013ce:	0f 85 a8 00 00 00    	jne    40147c <welcome_message+0xb1>
  4013d4:	48 83 ec 08          	sub    $0x8,%rsp
  4013d8:	bf b0 2b 40 00       	mov    $0x402bb0,%edi
  4013dd:	e8 2e f7 ff ff       	callq  400b10 <puts@plt>
  4013e2:	bf f0 2b 40 00       	mov    $0x402bf0,%edi
  4013e7:	e8 24 f7 ff ff       	callq  400b10 <puts@plt>
  4013ec:	bf 30 2c 40 00       	mov    $0x402c30,%edi
  4013f1:	e8 1a f7 ff ff       	callq  400b10 <puts@plt>
  4013f6:	bf 70 2c 40 00       	mov    $0x402c70,%edi
  4013fb:	e8 10 f7 ff ff       	callq  400b10 <puts@plt>
  401400:	bf b0 2c 40 00       	mov    $0x402cb0,%edi
  401405:	e8 06 f7 ff ff       	callq  400b10 <puts@plt>
  40140a:	bf f0 2c 40 00       	mov    $0x402cf0,%edi
  40140f:	e8 fc f6 ff ff       	callq  400b10 <puts@plt>
  401414:	bf 30 2d 40 00       	mov    $0x402d30,%edi
  401419:	e8 f2 f6 ff ff       	callq  400b10 <puts@plt>
  40141e:	bf 68 2d 40 00       	mov    $0x402d68,%edi
  401423:	e8 e8 f6 ff ff       	callq  400b10 <puts@plt>
  401428:	bf a0 2d 40 00       	mov    $0x402da0,%edi
  40142d:	e8 de f6 ff ff       	callq  400b10 <puts@plt>
  401432:	bf e0 2d 40 00       	mov    $0x402de0,%edi
  401437:	e8 d4 f6 ff ff       	callq  400b10 <puts@plt>
  40143c:	bf 20 2e 40 00       	mov    $0x402e20,%edi
  401441:	e8 ca f6 ff ff       	callq  400b10 <puts@plt>
  401446:	bf 60 2e 40 00       	mov    $0x402e60,%edi
  40144b:	e8 c0 f6 ff ff       	callq  400b10 <puts@plt>
  401450:	bf a0 2e 40 00       	mov    $0x402ea0,%edi
  401455:	e8 b6 f6 ff ff       	callq  400b10 <puts@plt>
  40145a:	bf e0 2e 40 00       	mov    $0x402ee0,%edi
  40145f:	e8 ac f6 ff ff       	callq  400b10 <puts@plt>
  401464:	bf 20 2f 40 00       	mov    $0x402f20,%edi
  401469:	e8 a2 f6 ff ff       	callq  400b10 <puts@plt>
  40146e:	bf 60 2f 40 00       	mov    $0x402f60,%edi
  401473:	e8 98 f6 ff ff       	callq  400b10 <puts@plt>
  401478:	48 83 c4 08          	add    $0x8,%rsp
  40147c:	f3 c3                	repz retq 

000000000040147e <initialize_bomb_solve>:
  40147e:	f3 c3                	repz retq 

0000000000401480 <blank_line>:
  401480:	55                   	push   %rbp
  401481:	53                   	push   %rbx
  401482:	48 83 ec 08          	sub    $0x8,%rsp
  401486:	48 89 fb             	mov    %rdi,%rbx
  401489:	eb 17                	jmp    4014a2 <blank_line+0x22>
  40148b:	e8 e0 f7 ff ff       	callq  400c70 <__ctype_b_loc@plt>
  401490:	48 8b 00             	mov    (%rax),%rax
  401493:	48 83 c3 01          	add    $0x1,%rbx
  401497:	48 0f be ed          	movsbq %bpl,%rbp
  40149b:	f6 44 68 01 20       	testb  $0x20,0x1(%rax,%rbp,2)
  4014a0:	74 0f                	je     4014b1 <blank_line+0x31>
  4014a2:	0f b6 2b             	movzbl (%rbx),%ebp
  4014a5:	40 84 ed             	test   %bpl,%bpl
  4014a8:	75 e1                	jne    40148b <blank_line+0xb>
  4014aa:	b8 01 00 00 00       	mov    $0x1,%eax
  4014af:	eb 05                	jmp    4014b6 <blank_line+0x36>
  4014b1:	b8 00 00 00 00       	mov    $0x0,%eax
  4014b6:	48 83 c4 08          	add    $0x8,%rsp
  4014ba:	5b                   	pop    %rbx
  4014bb:	5d                   	pop    %rbp
  4014bc:	c3                   	retq   

00000000004014bd <skip>:
  4014bd:	53                   	push   %rbx
  4014be:	48 63 05 5b 31 20 00 	movslq 0x20315b(%rip),%rax        # 604620 <num_input_strings>
  4014c5:	48 8d 3c 80          	lea    (%rax,%rax,4),%rdi
  4014c9:	48 c1 e7 04          	shl    $0x4,%rdi
  4014cd:	48 81 c7 40 46 60 00 	add    $0x604640,%rdi
  4014d4:	48 8b 15 4d 31 20 00 	mov    0x20314d(%rip),%rdx        # 604628 <infile>
  4014db:	be 50 00 00 00       	mov    $0x50,%esi
  4014e0:	e8 9b f6 ff ff       	callq  400b80 <fgets@plt>
  4014e5:	48 89 c3             	mov    %rax,%rbx
  4014e8:	48 85 c0             	test   %rax,%rax
  4014eb:	74 0c                	je     4014f9 <skip+0x3c>
  4014ed:	48 89 c7             	mov    %rax,%rdi
  4014f0:	e8 8b ff ff ff       	callq  401480 <blank_line>
  4014f5:	85 c0                	test   %eax,%eax
  4014f7:	75 c5                	jne    4014be <skip+0x1>
  4014f9:	48 89 d8             	mov    %rbx,%rax
  4014fc:	5b                   	pop    %rbx
  4014fd:	c3                   	retq   

00000000004014fe <send_msg>:
  4014fe:	48 81 ec 08 40 00 00 	sub    $0x4008,%rsp
  401505:	89 fe                	mov    %edi,%esi
  401507:	44 8b 05 12 31 20 00 	mov    0x203112(%rip),%r8d        # 604620 <num_input_strings>
  40150e:	41 8d 40 ff          	lea    -0x1(%r8),%eax
  401512:	48 98                	cltq   
  401514:	4c 8d 0c 80          	lea    (%rax,%rax,4),%r9
  401518:	49 c1 e1 04          	shl    $0x4,%r9
  40151c:	49 81 c1 40 46 60 00 	add    $0x604640,%r9
  401523:	4c 89 cf             	mov    %r9,%rdi
  401526:	b8 00 00 00 00       	mov    $0x0,%eax
  40152b:	48 c7 c1 ff ff ff ff 	mov    $0xffffffffffffffff,%rcx
  401532:	f2 ae                	repnz scas %es:(%rdi),%al
  401534:	48 f7 d1             	not    %rcx
  401537:	48 83 c1 63          	add    $0x63,%rcx
  40153b:	48 81 f9 00 20 00 00 	cmp    $0x2000,%rcx
  401542:	76 14                	jbe    401558 <send_msg+0x5a>
  401544:	bf a0 2f 40 00       	mov    $0x402fa0,%edi
  401549:	e8 e2 f5 ff ff       	callq  400b30 <printf@plt>
  40154e:	bf 08 00 00 00       	mov    $0x8,%edi
  401553:	e8 e8 f6 ff ff       	callq  400c40 <exit@plt>
  401558:	85 f6                	test   %esi,%esi
  40155a:	74 07                	je     401563 <send_msg+0x65>
  40155c:	b9 c6 30 40 00       	mov    $0x4030c6,%ecx
  401561:	eb 05                	jmp    401568 <send_msg+0x6a>
  401563:	b9 ce 30 40 00       	mov    $0x4030ce,%ecx
  401568:	8b 15 72 2c 20 00    	mov    0x202c72(%rip),%edx        # 6041e0 <bomb_id>
  40156e:	be d7 30 40 00       	mov    $0x4030d7,%esi
  401573:	48 8d bc 24 00 20 00 	lea    0x2000(%rsp),%rdi
  40157a:	00 
  40157b:	b8 00 00 00 00       	mov    $0x0,%eax
  401580:	e8 ab f6 ff ff       	callq  400c30 <sprintf@plt>
  401585:	49 89 e0             	mov    %rsp,%r8
  401588:	b9 00 00 00 00       	mov    $0x0,%ecx
  40158d:	48 8d 94 24 00 20 00 	lea    0x2000(%rsp),%rdx
  401594:	00 
  401595:	be c0 41 60 00       	mov    $0x6041c0,%esi
  40159a:	bf d5 41 60 00       	mov    $0x6041d5,%edi
  40159f:	e8 65 12 00 00       	callq  402809 <driver_post>
  4015a4:	85 c0                	test   %eax,%eax
  4015a6:	79 12                	jns    4015ba <send_msg+0xbc>
  4015a8:	48 89 e7             	mov    %rsp,%rdi
  4015ab:	e8 60 f5 ff ff       	callq  400b10 <puts@plt>
  4015b0:	bf 00 00 00 00       	mov    $0x0,%edi
  4015b5:	e8 86 f6 ff ff       	callq  400c40 <exit@plt>
  4015ba:	48 81 c4 08 40 00 00 	add    $0x4008,%rsp
  4015c1:	c3                   	retq   

00000000004015c2 <phase_defused>:
  4015c2:	48 83 ec 08          	sub    $0x8,%rsp
  4015c6:	bf 01 00 00 00       	mov    $0x1,%edi
  4015cb:	e8 2e ff ff ff       	callq  4014fe <send_msg>
  4015d0:	83 3d 49 30 20 00 05 	cmpl   $0x5,0x203049(%rip)        # 604620 <num_input_strings>
  4015d7:	7e 1d                	jle    4015f6 <phase_defused+0x34>
  4015d9:	83 3d 3c 30 20 00 21 	cmpl   $0x21,0x20303c(%rip)        # 60461c <last>
  4015e0:	74 14                	je     4015f6 <phase_defused+0x34>
  4015e2:	bf c8 2f 40 00       	mov    $0x402fc8,%edi
  4015e7:	e8 24 f5 ff ff       	callq  400b10 <puts@plt>
  4015ec:	bf f8 2f 40 00       	mov    $0x402ff8,%edi
  4015f1:	e8 1a f5 ff ff       	callq  400b10 <puts@plt>
  4015f6:	48 83 c4 08          	add    $0x8,%rsp
  4015fa:	c3                   	retq   

00000000004015fb <explode_bomb>:
  4015fb:	48 81 ec d8 00 00 00 	sub    $0xd8,%rsp
  401602:	83 3d 17 30 20 00 06 	cmpl   $0x6,0x203017(%rip)        # 604620 <num_input_strings>
  401609:	77 61                	ja     40166c <explode_bomb+0x71>
  40160b:	8b 05 0f 30 20 00    	mov    0x20300f(%rip),%eax        # 604620 <num_input_strings>
  401611:	ff 24 c5 c0 32 40 00 	jmpq   *0x4032c0(,%rax,8)
  401618:	bf e3 30 40 00       	mov    $0x4030e3,%edi
  40161d:	e8 ee f4 ff ff       	callq  400b10 <puts@plt>
  401622:	eb 48                	jmp    40166c <explode_bomb+0x71>
  401624:	bf 40 30 40 00       	mov    $0x403040,%edi
  401629:	e8 e2 f4 ff ff       	callq  400b10 <puts@plt>
  40162e:	66 90                	xchg   %ax,%ax
  401630:	eb 3a                	jmp    40166c <explode_bomb+0x71>
  401632:	bf e8 30 40 00       	mov    $0x4030e8,%edi
  401637:	e8 d4 f4 ff ff       	callq  400b10 <puts@plt>
  40163c:	eb 2e                	jmp    40166c <explode_bomb+0x71>
  40163e:	bf fd 30 40 00       	mov    $0x4030fd,%edi
  401643:	e8 c8 f4 ff ff       	callq  400b10 <puts@plt>
  401648:	eb 22                	jmp    40166c <explode_bomb+0x71>
  40164a:	bf 13 31 40 00       	mov    $0x403113,%edi
  40164f:	e8 bc f4 ff ff       	callq  400b10 <puts@plt>
  401654:	eb 16                	jmp    40166c <explode_bomb+0x71>
  401656:	bf 2a 31 40 00       	mov    $0x40312a,%edi
  40165b:	e8 b0 f4 ff ff       	callq  400b10 <puts@plt>
  401660:	eb 0a                	jmp    40166c <explode_bomb+0x71>
  401662:	bf 33 31 40 00       	mov    $0x403133,%edi
  401667:	e8 a4 f4 ff ff       	callq  400b10 <puts@plt>
  40166c:	48 89 e7             	mov    %rsp,%rdi
  40166f:	b9 19 00 00 00       	mov    $0x19,%ecx
  401674:	b8 00 00 00 00       	mov    $0x0,%eax
  401679:	f3 48 ab             	rep stos %rax,%es:(%rdi)
  40167c:	c6 04 24 53          	movb   $0x53,(%rsp)
  401680:	c6 44 24 01 6f       	movb   $0x6f,0x1(%rsp)
  401685:	c6 44 24 02 20       	movb   $0x20,0x2(%rsp)
  40168a:	c6 44 24 03 79       	movb   $0x79,0x3(%rsp)
  40168f:	c6 44 24 04 6f       	movb   $0x6f,0x4(%rsp)
  401694:	c6 44 24 05 75       	movb   $0x75,0x5(%rsp)
  401699:	c6 44 24 06 20       	movb   $0x20,0x6(%rsp)
  40169e:	c6 44 24 07 6d       	movb   $0x6d,0x7(%rsp)
  4016a3:	c6 44 24 08 61       	movb   $0x61,0x8(%rsp)
  4016a8:	c6 44 24 09 64       	movb   $0x64,0x9(%rsp)
  4016ad:	c6 44 24 0a 65       	movb   $0x65,0xa(%rsp)
  4016b2:	c6 44 24 0b 20       	movb   $0x20,0xb(%rsp)
  4016b7:	c6 44 24 0c 69       	movb   $0x69,0xc(%rsp)
  4016bc:	c6 44 24 0d 74       	movb   $0x74,0xd(%rsp)
  4016c1:	c6 44 24 0e 20       	movb   $0x20,0xe(%rsp)
  4016c6:	c6 44 24 0f 74       	movb   $0x74,0xf(%rsp)
  4016cb:	c6 44 24 10 6f       	movb   $0x6f,0x10(%rsp)
  4016d0:	c6 44 24 11 20       	movb   $0x20,0x11(%rsp)
  4016d5:	c6 44 24 12 74       	movb   $0x74,0x12(%rsp)
  4016da:	c6 44 24 13 68       	movb   $0x68,0x13(%rsp)
  4016df:	c6 44 24 14 65       	movb   $0x65,0x14(%rsp)
  4016e4:	c6 44 24 15 20       	movb   $0x20,0x15(%rsp)
  4016e9:	c6 44 24 16 73       	movb   $0x73,0x16(%rsp)
  4016ee:	c6 44 24 17 33       	movb   $0x33,0x17(%rsp)
  4016f3:	c6 44 24 18 63       	movb   $0x63,0x18(%rsp)
  4016f8:	c6 44 24 19 72       	movb   $0x72,0x19(%rsp)
  4016fd:	c6 44 24 1a 65       	movb   $0x65,0x1a(%rsp)
  401702:	c6 44 24 1b 74       	movb   $0x74,0x1b(%rsp)
  401707:	c6 44 24 1c 20       	movb   $0x20,0x1c(%rsp)
  40170c:	c6 44 24 1d 70       	movb   $0x70,0x1d(%rsp)
  401711:	c6 44 24 1e 68       	movb   $0x68,0x1e(%rsp)
  401716:	c6 44 24 1f 61       	movb   $0x61,0x1f(%rsp)
  40171b:	c6 44 24 20 73       	movb   $0x73,0x20(%rsp)
  401720:	c6 44 24 21 65       	movb   $0x65,0x21(%rsp)
  401725:	c6 44 24 22 2e       	movb   $0x2e,0x22(%rsp)
  40172a:	c6 44 24 23 20       	movb   $0x20,0x23(%rsp)
  40172f:	c6 44 24 24 20       	movb   $0x20,0x24(%rsp)
  401734:	c6 44 24 25 4e       	movb   $0x4e,0x25(%rsp)
  401739:	c6 44 24 26 69       	movb   $0x69,0x26(%rsp)
  40173e:	c6 44 24 27 63       	movb   $0x63,0x27(%rsp)
  401743:	c6 44 24 28 65       	movb   $0x65,0x28(%rsp)
  401748:	c6 44 24 29 2c       	movb   $0x2c,0x29(%rsp)
  40174d:	c6 44 24 2a 20       	movb   $0x20,0x2a(%rsp)
  401752:	c6 44 24 2b 62       	movb   $0x62,0x2b(%rsp)
  401757:	c6 44 24 2c 75       	movb   $0x75,0x2c(%rsp)
  40175c:	c6 44 24 2d 74       	movb   $0x74,0x2d(%rsp)
  401761:	c6 44 24 2e 0a       	movb   $0xa,0x2e(%rsp)
  401766:	c6 44 24 2f 64       	movb   $0x64,0x2f(%rsp)
  40176b:	c6 44 24 30 6f       	movb   $0x6f,0x30(%rsp)
  401770:	c6 44 24 31 6e       	movb   $0x6e,0x31(%rsp)
  401775:	c6 44 24 32 27       	movb   $0x27,0x32(%rsp)
  40177a:	c6 44 24 33 74       	movb   $0x74,0x33(%rsp)
  40177f:	c6 44 24 34 20       	movb   $0x20,0x34(%rsp)
  401784:	c6 44 24 35 74       	movb   $0x74,0x35(%rsp)
  401789:	c6 44 24 36 65       	movb   $0x65,0x36(%rsp)
  40178e:	c6 44 24 37 6c       	movb   $0x6c,0x37(%rsp)
  401793:	c6 44 24 38 6c       	movb   $0x6c,0x38(%rsp)
  401798:	c6 44 24 39 20       	movb   $0x20,0x39(%rsp)
  40179d:	c6 44 24 3a 61       	movb   $0x61,0x3a(%rsp)
  4017a2:	c6 44 24 3b 6e       	movb   $0x6e,0x3b(%rsp)
  4017a7:	c6 44 24 3c 79       	movb   $0x79,0x3c(%rsp)
  4017ac:	c6 44 24 3d 6f       	movb   $0x6f,0x3d(%rsp)
  4017b1:	c6 44 24 3e 6e       	movb   $0x6e,0x3e(%rsp)
  4017b6:	c6 44 24 3f 65       	movb   $0x65,0x3f(%rsp)
  4017bb:	c6 44 24 40 20       	movb   $0x20,0x40(%rsp)
  4017c0:	c6 44 24 41 61       	movb   $0x61,0x41(%rsp)
  4017c5:	c6 44 24 42 62       	movb   $0x62,0x42(%rsp)
  4017ca:	c6 44 24 43 6f       	movb   $0x6f,0x43(%rsp)
  4017cf:	c6 44 24 44 75       	movb   $0x75,0x44(%rsp)
  4017d4:	c6 44 24 45 74       	movb   $0x74,0x45(%rsp)
  4017d9:	c6 44 24 46 20       	movb   $0x20,0x46(%rsp)
  4017de:	c6 44 24 47 69       	movb   $0x69,0x47(%rsp)
  4017e3:	c6 44 24 48 74       	movb   $0x74,0x48(%rsp)
  4017e8:	c6 44 24 49 20       	movb   $0x20,0x49(%rsp)
  4017ed:	c6 44 24 4a 28       	movb   $0x28,0x4a(%rsp)
  4017f2:	c6 44 24 4b 65       	movb   $0x65,0x4b(%rsp)
  4017f7:	c6 44 24 4c 73       	movb   $0x73,0x4c(%rsp)
  4017fc:	c6 44 24 4d 70       	movb   $0x70,0x4d(%rsp)
  401801:	c6 44 24 4e 65       	movb   $0x65,0x4e(%rsp)
  401806:	c6 44 24 4f 63       	movb   $0x63,0x4f(%rsp)
  40180b:	c6 44 24 50 69       	movb   $0x69,0x50(%rsp)
  401810:	c6 44 24 51 61       	movb   $0x61,0x51(%rsp)
  401815:	c6 44 24 52 6c       	movb   $0x6c,0x52(%rsp)
  40181a:	c6 44 24 53 6c       	movb   $0x6c,0x53(%rsp)
  40181f:	c6 44 24 54 79       	movb   $0x79,0x54(%rsp)
  401824:	c6 44 24 55 20       	movb   $0x20,0x55(%rsp)
  401829:	c6 44 24 56 6f       	movb   $0x6f,0x56(%rsp)
  40182e:	c6 44 24 57 6e       	movb   $0x6e,0x57(%rsp)
  401833:	c6 44 24 58 20       	movb   $0x20,0x58(%rsp)
  401838:	c6 44 24 59 50       	movb   $0x50,0x59(%rsp)
  40183d:	c6 44 24 5a 69       	movb   $0x69,0x5a(%rsp)
  401842:	c6 44 24 5b 61       	movb   $0x61,0x5b(%rsp)
  401847:	c6 44 24 5c 7a       	movb   $0x7a,0x5c(%rsp)
  40184c:	c6 44 24 5d 7a       	movb   $0x7a,0x5d(%rsp)
  401851:	c6 44 24 5e 61       	movb   $0x61,0x5e(%rsp)
  401856:	c6 44 24 5f 29       	movb   $0x29,0x5f(%rsp)
  40185b:	c6 44 24 60 2e       	movb   $0x2e,0x60(%rsp)
  401860:	c6 44 24 61 0a       	movb   $0xa,0x61(%rsp)
  401865:	c6 44 24 62 49       	movb   $0x49,0x62(%rsp)
  40186a:	c6 44 24 63 66       	movb   $0x66,0x63(%rsp)
  40186f:	c6 44 24 64 20       	movb   $0x20,0x64(%rsp)
  401874:	c6 44 24 65 79       	movb   $0x79,0x65(%rsp)
  401879:	c6 44 24 66 6f       	movb   $0x6f,0x66(%rsp)
  40187e:	c6 44 24 67 75       	movb   $0x75,0x67(%rsp)
  401883:	c6 44 24 68 20       	movb   $0x20,0x68(%rsp)
  401888:	c6 44 24 69 64       	movb   $0x64,0x69(%rsp)
  40188d:	c6 44 24 6a 6f       	movb   $0x6f,0x6a(%rsp)
  401892:	c6 44 24 6b 20       	movb   $0x20,0x6b(%rsp)
  401897:	c6 44 24 6c 79       	movb   $0x79,0x6c(%rsp)
  40189c:	c6 44 24 6d 6f       	movb   $0x6f,0x6d(%rsp)
  4018a1:	c6 44 24 6e 75       	movb   $0x75,0x6e(%rsp)
  4018a6:	c6 44 24 6f 20       	movb   $0x20,0x6f(%rsp)
  4018ab:	c6 44 24 70 77       	movb   $0x77,0x70(%rsp)
  4018b0:	c6 44 24 71 6f       	movb   $0x6f,0x71(%rsp)
  4018b5:	c6 44 24 72 6e       	movb   $0x6e,0x72(%rsp)
  4018ba:	c6 44 24 73 27       	movb   $0x27,0x73(%rsp)
  4018bf:	c6 44 24 74 74       	movb   $0x74,0x74(%rsp)
  4018c4:	c6 44 24 75 20       	movb   $0x20,0x75(%rsp)
  4018c9:	c6 44 24 76 67       	movb   $0x67,0x76(%rsp)
  4018ce:	c6 44 24 77 65       	movb   $0x65,0x77(%rsp)
  4018d3:	c6 44 24 78 74       	movb   $0x74,0x78(%rsp)
  4018d8:	c6 44 24 79 20       	movb   $0x20,0x79(%rsp)
  4018dd:	c6 44 24 7a 61       	movb   $0x61,0x7a(%rsp)
  4018e2:	c6 44 24 7b 6e       	movb   $0x6e,0x7b(%rsp)
  4018e7:	c6 44 24 7c 79       	movb   $0x79,0x7c(%rsp)
  4018ec:	c6 44 24 7d 20       	movb   $0x20,0x7d(%rsp)
  4018f1:	c6 44 24 7e 65       	movb   $0x65,0x7e(%rsp)
  4018f6:	c6 44 24 7f 78       	movb   $0x78,0x7f(%rsp)
  4018fb:	c6 84 24 80 00 00 00 	movb   $0x74,0x80(%rsp)
  401902:	74 
  401903:	c6 84 24 81 00 00 00 	movb   $0x72,0x81(%rsp)
  40190a:	72 
  40190b:	c6 84 24 82 00 00 00 	movb   $0x61,0x82(%rsp)
  401912:	61 
  401913:	c6 84 24 83 00 00 00 	movb   $0x20,0x83(%rsp)
  40191a:	20 
  40191b:	c6 84 24 84 00 00 00 	movb   $0x63,0x84(%rsp)
  401922:	63 
  401923:	c6 84 24 85 00 00 00 	movb   $0x72,0x85(%rsp)
  40192a:	72 
  40192b:	c6 84 24 86 00 00 00 	movb   $0x65,0x86(%rsp)
  401932:	65 
  401933:	c6 84 24 87 00 00 00 	movb   $0x64,0x87(%rsp)
  40193a:	64 
  40193b:	c6 84 24 88 00 00 00 	movb   $0x69,0x88(%rsp)
  401942:	69 
  401943:	c6 84 24 89 00 00 00 	movb   $0x74,0x89(%rsp)
  40194a:	74 
  40194b:	c6 84 24 8a 00 00 00 	movb   $0x21,0x8a(%rsp)
  401952:	21 
  401953:	c6 84 24 8b 00 00 00 	movb   $0x20,0x8b(%rsp)
  40195a:	20 
  40195b:	c6 84 24 8c 00 00 00 	movb   $0x61,0x8c(%rsp)
  401962:	61 
  401963:	c6 84 24 8d 00 00 00 	movb   $0x6e,0x8d(%rsp)
  40196a:	6e 
  40196b:	c6 84 24 8e 00 00 00 	movb   $0x79,0x8e(%rsp)
  401972:	79 
  401973:	c6 84 24 8f 00 00 00 	movb   $0x77,0x8f(%rsp)
  40197a:	77 
  40197b:	c6 84 24 90 00 00 00 	movb   $0x61,0x90(%rsp)
  401982:	61 
  401983:	c6 84 24 91 00 00 00 	movb   $0x79,0x91(%rsp)
  40198a:	79 
  40198b:	c6 84 24 92 00 00 00 	movb   $0x73,0x92(%rsp)
  401992:	73 
  401993:	c6 84 24 93 00 00 00 	movb   $0x2c,0x93(%rsp)
  40199a:	2c 
  40199b:	c6 84 24 94 00 00 00 	movb   $0xa,0x94(%rsp)
  4019a2:	0a 
  4019a3:	c6 84 24 95 00 00 00 	movb   $0x66,0x95(%rsp)
  4019aa:	66 
  4019ab:	c6 84 24 96 00 00 00 	movb   $0x69,0x96(%rsp)
  4019b2:	69 
  4019b3:	c6 84 24 97 00 00 00 	movb   $0x6e,0x97(%rsp)
  4019ba:	6e 
  4019bb:	c6 84 24 98 00 00 00 	movb   $0x64,0x98(%rsp)
  4019c2:	64 
  4019c3:	c6 84 24 99 00 00 00 	movb   $0x69,0x99(%rsp)
  4019ca:	69 
  4019cb:	c6 84 24 9a 00 00 00 	movb   $0x6e,0x9a(%rsp)
  4019d2:	6e 
  4019d3:	c6 84 24 9b 00 00 00 	movb   $0x67,0x9b(%rsp)
  4019da:	67 
  4019db:	c6 84 24 9c 00 00 00 	movb   $0x20,0x9c(%rsp)
  4019e2:	20 
  4019e3:	c6 84 24 9d 00 00 00 	movb   $0x69,0x9d(%rsp)
  4019ea:	69 
  4019eb:	c6 84 24 9e 00 00 00 	movb   $0x74,0x9e(%rsp)
  4019f2:	74 
  4019f3:	c6 84 24 9f 00 00 00 	movb   $0x20,0x9f(%rsp)
  4019fa:	20 
  4019fb:	c6 84 24 a0 00 00 00 	movb   $0x61,0xa0(%rsp)
  401a02:	61 
  401a03:	c6 84 24 a1 00 00 00 	movb   $0x6e,0xa1(%rsp)
  401a0a:	6e 
  401a0b:	c6 84 24 a2 00 00 00 	movb   $0x64,0xa2(%rsp)
  401a12:	64 
  401a13:	c6 84 24 a3 00 00 00 	movb   $0x20,0xa3(%rsp)
  401a1a:	20 
  401a1b:	c6 84 24 a4 00 00 00 	movb   $0x73,0xa4(%rsp)
  401a22:	73 
  401a23:	c6 84 24 a5 00 00 00 	movb   $0x6f,0xa5(%rsp)
  401a2a:	6f 
  401a2b:	c6 84 24 a6 00 00 00 	movb   $0x6c,0xa6(%rsp)
  401a32:	6c 
  401a33:	c6 84 24 a7 00 00 00 	movb   $0x76,0xa7(%rsp)
  401a3a:	76 
  401a3b:	c6 84 24 a8 00 00 00 	movb   $0x69,0xa8(%rsp)
  401a42:	69 
  401a43:	c6 84 24 a9 00 00 00 	movb   $0x6e,0xa9(%rsp)
  401a4a:	6e 
  401a4b:	c6 84 24 aa 00 00 00 	movb   $0x67,0xaa(%rsp)
  401a52:	67 
  401a53:	c6 84 24 ab 00 00 00 	movb   $0x20,0xab(%rsp)
  401a5a:	20 
  401a5b:	c6 84 24 ac 00 00 00 	movb   $0x69,0xac(%rsp)
  401a62:	69 
  401a63:	c6 84 24 ad 00 00 00 	movb   $0x74,0xad(%rsp)
  401a6a:	74 
  401a6b:	c6 84 24 ae 00 00 00 	movb   $0x20,0xae(%rsp)
  401a72:	20 
  401a73:	c6 84 24 af 00 00 00 	movb   $0x61,0xaf(%rsp)
  401a7a:	61 
  401a7b:	c6 84 24 b0 00 00 00 	movb   $0x72,0xb0(%rsp)
  401a82:	72 
  401a83:	c6 84 24 b1 00 00 00 	movb   $0x65,0xb1(%rsp)
  401a8a:	65 
  401a8b:	c6 84 24 b2 00 00 00 	movb   $0x20,0xb2(%rsp)
  401a92:	20 
  401a93:	c6 84 24 b3 00 00 00 	movb   $0x71,0xb3(%rsp)
  401a9a:	71 
  401a9b:	c6 84 24 b4 00 00 00 	movb   $0x75,0xb4(%rsp)
  401aa2:	75 
  401aa3:	c6 84 24 b5 00 00 00 	movb   $0x69,0xb5(%rsp)
  401aaa:	69 
  401aab:	c6 84 24 b6 00 00 00 	movb   $0x74,0xb6(%rsp)
  401ab2:	74 
  401ab3:	c6 84 24 b7 00 00 00 	movb   $0x65,0xb7(%rsp)
  401aba:	65 
  401abb:	c6 84 24 b8 00 00 00 	movb   $0x20,0xb8(%rsp)
  401ac2:	20 
  401ac3:	c6 84 24 b9 00 00 00 	movb   $0x64,0xb9(%rsp)
  401aca:	64 
  401acb:	c6 84 24 ba 00 00 00 	movb   $0x69,0xba(%rsp)
  401ad2:	69 
  401ad3:	c6 84 24 bb 00 00 00 	movb   $0x66,0xbb(%rsp)
  401ada:	66 
  401adb:	c6 84 24 bc 00 00 00 	movb   $0x66,0xbc(%rsp)
  401ae2:	66 
  401ae3:	c6 84 24 bd 00 00 00 	movb   $0x65,0xbd(%rsp)
  401aea:	65 
  401aeb:	c6 84 24 be 00 00 00 	movb   $0x72,0xbe(%rsp)
  401af2:	72 
  401af3:	c6 84 24 bf 00 00 00 	movb   $0x65,0xbf(%rsp)
  401afa:	65 
  401afb:	c6 84 24 c0 00 00 00 	movb   $0x6e,0xc0(%rsp)
  401b02:	6e 
  401b03:	c6 84 24 c1 00 00 00 	movb   $0x74,0xc1(%rsp)
  401b0a:	74 
  401b0b:	c6 84 24 c2 00 00 00 	movb   $0x2e,0xc2(%rsp)
  401b12:	2e 
  401b13:	c6 84 24 c3 00 00 00 	movb   $0x2e,0xc3(%rsp)
  401b1a:	2e 
  401b1b:	c6 84 24 c4 00 00 00 	movb   $0x2e,0xc4(%rsp)
  401b22:	2e 
  401b23:	83 3d f6 2a 20 00 06 	cmpl   $0x6,0x202af6(%rip)        # 604620 <num_input_strings>
  401b2a:	75 34                	jne    401b60 <explode_bomb+0x565>
  401b2c:	83 3d e9 2a 20 00 21 	cmpl   $0x21,0x202ae9(%rip)        # 60461c <last>
  401b33:	75 2b                	jne    401b60 <explode_bomb+0x565>
  401b35:	48 89 e7             	mov    %rsp,%rdi
  401b38:	e8 d3 ef ff ff       	callq  400b10 <puts@plt>
  401b3d:	e8 80 fa ff ff       	callq  4015c2 <phase_defused>
  401b42:	c7 05 d0 2a 20 00 00 	movl   $0x0,0x202ad0(%rip)        # 60461c <last>
  401b49:	00 00 00 
  401b4c:	b8 00 00 00 00       	mov    $0x0,%eax
  401b51:	e8 32 f6 ff ff       	callq  401188 <s3cret_ph4se>
  401b56:	bf 00 00 00 00       	mov    $0x0,%edi
  401b5b:	e8 e0 f0 ff ff       	callq  400c40 <exit@plt>
  401b60:	bf 3d 31 40 00       	mov    $0x40313d,%edi
  401b65:	e8 a6 ef ff ff       	callq  400b10 <puts@plt>
  401b6a:	bf 46 31 40 00       	mov    $0x403146,%edi
  401b6f:	e8 9c ef ff ff       	callq  400b10 <puts@plt>
  401b74:	bf 00 00 00 00       	mov    $0x0,%edi
  401b79:	e8 80 f9 ff ff       	callq  4014fe <send_msg>
  401b7e:	bf 68 30 40 00       	mov    $0x403068,%edi
  401b83:	e8 88 ef ff ff       	callq  400b10 <puts@plt>
  401b88:	bf 08 00 00 00       	mov    $0x8,%edi
  401b8d:	e8 ae f0 ff ff       	callq  400c40 <exit@plt>

0000000000401b92 <read_six_numbers>:
  401b92:	48 83 ec 18          	sub    $0x18,%rsp
  401b96:	48 89 f2             	mov    %rsi,%rdx
  401b99:	48 8d 76 14          	lea    0x14(%rsi),%rsi
  401b9d:	48 8d 42 10          	lea    0x10(%rdx),%rax
  401ba1:	48 8d 4a 04          	lea    0x4(%rdx),%rcx
  401ba5:	48 89 74 24 08       	mov    %rsi,0x8(%rsp)
  401baa:	48 89 04 24          	mov    %rax,(%rsp)
  401bae:	4c 8d 4a 0c          	lea    0xc(%rdx),%r9
  401bb2:	4c 8d 42 08          	lea    0x8(%rdx),%r8
  401bb6:	be 5d 31 40 00       	mov    $0x40315d,%esi
  401bbb:	b8 00 00 00 00       	mov    $0x0,%eax
  401bc0:	e8 2b f0 ff ff       	callq  400bf0 <__isoc99_sscanf@plt>
  401bc5:	83 f8 05             	cmp    $0x5,%eax
  401bc8:	7f 05                	jg     401bcf <read_six_numbers+0x3d>
  401bca:	e8 2c fa ff ff       	callq  4015fb <explode_bomb>
  401bcf:	48 83 c4 18          	add    $0x18,%rsp
  401bd3:	c3                   	retq   

0000000000401bd4 <read_two_numbers>:
  401bd4:	48 83 ec 08          	sub    $0x8,%rsp
  401bd8:	48 89 d1             	mov    %rdx,%rcx
  401bdb:	48 89 f2             	mov    %rsi,%rdx
  401bde:	be 69 31 40 00       	mov    $0x403169,%esi
  401be3:	b8 00 00 00 00       	mov    $0x0,%eax
  401be8:	e8 03 f0 ff ff       	callq  400bf0 <__isoc99_sscanf@plt>
  401bed:	83 f8 02             	cmp    $0x2,%eax
  401bf0:	74 05                	je     401bf7 <read_two_numbers+0x23>
  401bf2:	e8 04 fa ff ff       	callq  4015fb <explode_bomb>
  401bf7:	48 83 c4 08          	add    $0x8,%rsp
  401bfb:	c3                   	retq   

0000000000401bfc <read_line>:
  401bfc:	48 83 ec 08          	sub    $0x8,%rsp
  401c00:	b8 00 00 00 00       	mov    $0x0,%eax
  401c05:	e8 b3 f8 ff ff       	callq  4014bd <skip>
  401c0a:	48 85 c0             	test   %rax,%rax
  401c0d:	75 6e                	jne    401c7d <read_line+0x81>
  401c0f:	48 8b 05 f2 29 20 00 	mov    0x2029f2(%rip),%rax        # 604608 <stdin@@GLIBC_2.2.5>
  401c16:	48 39 05 0b 2a 20 00 	cmp    %rax,0x202a0b(%rip)        # 604628 <infile>
  401c1d:	75 14                	jne    401c33 <read_line+0x37>
  401c1f:	bf 6f 31 40 00       	mov    $0x40316f,%edi
  401c24:	e8 e7 ee ff ff       	callq  400b10 <puts@plt>
  401c29:	bf 08 00 00 00       	mov    $0x8,%edi
  401c2e:	e8 0d f0 ff ff       	callq  400c40 <exit@plt>
  401c33:	bf 8d 31 40 00       	mov    $0x40318d,%edi
  401c38:	e8 93 ee ff ff       	callq  400ad0 <getenv@plt>
  401c3d:	48 85 c0             	test   %rax,%rax
  401c40:	74 0a                	je     401c4c <read_line+0x50>
  401c42:	bf 00 00 00 00       	mov    $0x0,%edi
  401c47:	e8 f4 ef ff ff       	callq  400c40 <exit@plt>
  401c4c:	48 8b 05 b5 29 20 00 	mov    0x2029b5(%rip),%rax        # 604608 <stdin@@GLIBC_2.2.5>
  401c53:	48 89 05 ce 29 20 00 	mov    %rax,0x2029ce(%rip)        # 604628 <infile>
  401c5a:	b8 00 00 00 00       	mov    $0x0,%eax
  401c5f:	e8 59 f8 ff ff       	callq  4014bd <skip>
  401c64:	48 85 c0             	test   %rax,%rax
  401c67:	75 14                	jne    401c7d <read_line+0x81>
  401c69:	bf 6f 31 40 00       	mov    $0x40316f,%edi
  401c6e:	e8 9d ee ff ff       	callq  400b10 <puts@plt>
  401c73:	bf 00 00 00 00       	mov    $0x0,%edi
  401c78:	e8 c3 ef ff ff       	callq  400c40 <exit@plt>
  401c7d:	8b 15 9d 29 20 00    	mov    0x20299d(%rip),%edx        # 604620 <num_input_strings>
  401c83:	48 63 c2             	movslq %edx,%rax
  401c86:	48 8d 04 80          	lea    (%rax,%rax,4),%rax
  401c8a:	48 c1 e0 04          	shl    $0x4,%rax
  401c8e:	4c 8d 80 40 46 60 00 	lea    0x604640(%rax),%r8
  401c95:	4c 89 c7             	mov    %r8,%rdi
  401c98:	b8 00 00 00 00       	mov    $0x0,%eax
  401c9d:	48 c7 c1 ff ff ff ff 	mov    $0xffffffffffffffff,%rcx
  401ca4:	f2 ae                	repnz scas %es:(%rdi),%al
  401ca6:	48 f7 d1             	not    %rcx
  401ca9:	48 83 e9 01          	sub    $0x1,%rcx
  401cad:	83 f9 4e             	cmp    $0x4e,%ecx
  401cb0:	7e 46                	jle    401cf8 <read_line+0xfc>
  401cb2:	bf 98 31 40 00       	mov    $0x403198,%edi
  401cb7:	e8 54 ee ff ff       	callq  400b10 <puts@plt>
  401cbc:	8b 05 5e 29 20 00    	mov    0x20295e(%rip),%eax        # 604620 <num_input_strings>
  401cc2:	8d 50 01             	lea    0x1(%rax),%edx
  401cc5:	89 15 55 29 20 00    	mov    %edx,0x202955(%rip)        # 604620 <num_input_strings>
  401ccb:	48 98                	cltq   
  401ccd:	48 6b c0 50          	imul   $0x50,%rax,%rax
  401cd1:	48 bf 2a 2a 2a 74 72 	movabs $0x636e7572742a2a2a,%rdi
  401cd8:	75 6e 63 
  401cdb:	48 89 b8 40 46 60 00 	mov    %rdi,0x604640(%rax)
  401ce2:	48 bf 61 74 65 64 2a 	movabs $0x2a2a2a64657461,%rdi
  401ce9:	2a 2a 00 
  401cec:	48 89 b8 48 46 60 00 	mov    %rdi,0x604648(%rax)
  401cf3:	e8 03 f9 ff ff       	callq  4015fb <explode_bomb>
  401cf8:	83 e9 01             	sub    $0x1,%ecx
  401cfb:	48 63 c9             	movslq %ecx,%rcx
  401cfe:	48 63 c2             	movslq %edx,%rax
  401d01:	48 8d 34 80          	lea    (%rax,%rax,4),%rsi
  401d05:	48 c1 e6 04          	shl    $0x4,%rsi
  401d09:	c6 84 31 40 46 60 00 	movb   $0x0,0x604640(%rcx,%rsi,1)
  401d10:	00 
  401d11:	83 c2 01             	add    $0x1,%edx
  401d14:	89 15 06 29 20 00    	mov    %edx,0x202906(%rip)        # 604620 <num_input_strings>
  401d1a:	4c 89 c0             	mov    %r8,%rax
  401d1d:	48 83 c4 08          	add    $0x8,%rsp
  401d21:	c3                   	retq   
  401d22:	66 2e 0f 1f 84 00 00 	nopw   %cs:0x0(%rax,%rax,1)
  401d29:	00 00 00 
  401d2c:	0f 1f 40 00          	nopl   0x0(%rax)

0000000000401d30 <rio_readinitb>:
  401d30:	89 37                	mov    %esi,(%rdi)
  401d32:	c7 47 04 00 00 00 00 	movl   $0x0,0x4(%rdi)
  401d39:	48 8d 47 10          	lea    0x10(%rdi),%rax
  401d3d:	48 89 47 08          	mov    %rax,0x8(%rdi)
  401d41:	c3                   	retq   

0000000000401d42 <sigalrm_handler>:
  401d42:	48 83 ec 08          	sub    $0x8,%rsp
  401d46:	ba 00 00 00 00       	mov    $0x0,%edx
  401d4b:	be f8 32 40 00       	mov    $0x4032f8,%esi
  401d50:	48 8b 3d b9 28 20 00 	mov    0x2028b9(%rip),%rdi        # 604610 <stderr@@GLIBC_2.2.5>
  401d57:	b8 00 00 00 00       	mov    $0x0,%eax
  401d5c:	e8 4f ee ff ff       	callq  400bb0 <fprintf@plt>
  401d61:	bf 01 00 00 00       	mov    $0x1,%edi
  401d66:	e8 d5 ee ff ff       	callq  400c40 <exit@plt>

0000000000401d6b <urlencode>:
  401d6b:	41 54                	push   %r12
  401d6d:	55                   	push   %rbp
  401d6e:	53                   	push   %rbx
  401d6f:	48 83 ec 10          	sub    $0x10,%rsp
  401d73:	48 89 fb             	mov    %rdi,%rbx
  401d76:	48 89 f5             	mov    %rsi,%rbp
  401d79:	b8 00 00 00 00       	mov    $0x0,%eax
  401d7e:	48 c7 c1 ff ff ff ff 	mov    $0xffffffffffffffff,%rcx
  401d85:	f2 ae                	repnz scas %es:(%rdi),%al
  401d87:	48 f7 d1             	not    %rcx
  401d8a:	8d 41 ff             	lea    -0x1(%rcx),%eax
  401d8d:	e9 93 00 00 00       	jmpq   401e25 <urlencode+0xba>
  401d92:	0f b6 13             	movzbl (%rbx),%edx
  401d95:	80 fa 2a             	cmp    $0x2a,%dl
  401d98:	0f 94 c1             	sete   %cl
  401d9b:	80 fa 2d             	cmp    $0x2d,%dl
  401d9e:	0f 94 c0             	sete   %al
  401da1:	08 c1                	or     %al,%cl
  401da3:	75 1f                	jne    401dc4 <urlencode+0x59>
  401da5:	80 fa 2e             	cmp    $0x2e,%dl
  401da8:	74 1a                	je     401dc4 <urlencode+0x59>
  401daa:	80 fa 5f             	cmp    $0x5f,%dl
  401dad:	74 15                	je     401dc4 <urlencode+0x59>
  401daf:	8d 42 d0             	lea    -0x30(%rdx),%eax
  401db2:	3c 09                	cmp    $0x9,%al
  401db4:	76 0e                	jbe    401dc4 <urlencode+0x59>
  401db6:	8d 42 bf             	lea    -0x41(%rdx),%eax
  401db9:	3c 19                	cmp    $0x19,%al
  401dbb:	76 07                	jbe    401dc4 <urlencode+0x59>
  401dbd:	8d 42 9f             	lea    -0x61(%rdx),%eax
  401dc0:	3c 19                	cmp    $0x19,%al
  401dc2:	77 09                	ja     401dcd <urlencode+0x62>
  401dc4:	88 55 00             	mov    %dl,0x0(%rbp)
  401dc7:	48 8d 6d 01          	lea    0x1(%rbp),%rbp
  401dcb:	eb 51                	jmp    401e1e <urlencode+0xb3>
  401dcd:	80 fa 20             	cmp    $0x20,%dl
  401dd0:	75 0a                	jne    401ddc <urlencode+0x71>
  401dd2:	c6 45 00 2b          	movb   $0x2b,0x0(%rbp)
  401dd6:	48 8d 6d 01          	lea    0x1(%rbp),%rbp
  401dda:	eb 42                	jmp    401e1e <urlencode+0xb3>
  401ddc:	8d 42 e0             	lea    -0x20(%rdx),%eax
  401ddf:	3c 5f                	cmp    $0x5f,%al
  401de1:	0f 96 c1             	setbe  %cl
  401de4:	80 fa 09             	cmp    $0x9,%dl
  401de7:	0f 94 c0             	sete   %al
  401dea:	08 c1                	or     %al,%cl
  401dec:	74 45                	je     401e33 <urlencode+0xc8>
  401dee:	0f b6 d2             	movzbl %dl,%edx
  401df1:	be d0 33 40 00       	mov    $0x4033d0,%esi
  401df6:	48 89 e7             	mov    %rsp,%rdi
  401df9:	b8 00 00 00 00       	mov    $0x0,%eax
  401dfe:	e8 2d ee ff ff       	callq  400c30 <sprintf@plt>
  401e03:	0f b6 04 24          	movzbl (%rsp),%eax
  401e07:	88 45 00             	mov    %al,0x0(%rbp)
  401e0a:	0f b6 44 24 01       	movzbl 0x1(%rsp),%eax
  401e0f:	88 45 01             	mov    %al,0x1(%rbp)
  401e12:	0f b6 44 24 02       	movzbl 0x2(%rsp),%eax
  401e17:	88 45 02             	mov    %al,0x2(%rbp)
  401e1a:	48 8d 6d 03          	lea    0x3(%rbp),%rbp
  401e1e:	48 83 c3 01          	add    $0x1,%rbx
  401e22:	44 89 e0             	mov    %r12d,%eax
  401e25:	44 8d 60 ff          	lea    -0x1(%rax),%r12d
  401e29:	85 c0                	test   %eax,%eax
  401e2b:	0f 85 61 ff ff ff    	jne    401d92 <urlencode+0x27>
  401e31:	eb 05                	jmp    401e38 <urlencode+0xcd>
  401e33:	b8 ff ff ff ff       	mov    $0xffffffff,%eax
  401e38:	48 83 c4 10          	add    $0x10,%rsp
  401e3c:	5b                   	pop    %rbx
  401e3d:	5d                   	pop    %rbp
  401e3e:	41 5c                	pop    %r12
  401e40:	c3                   	retq   

0000000000401e41 <rio_writen>:
  401e41:	41 55                	push   %r13
  401e43:	41 54                	push   %r12
  401e45:	55                   	push   %rbp
  401e46:	53                   	push   %rbx
  401e47:	48 83 ec 08          	sub    $0x8,%rsp
  401e4b:	41 89 fc             	mov    %edi,%r12d
  401e4e:	48 89 f5             	mov    %rsi,%rbp
  401e51:	49 89 d5             	mov    %rdx,%r13
  401e54:	48 89 d3             	mov    %rdx,%rbx
  401e57:	eb 28                	jmp    401e81 <rio_writen+0x40>
  401e59:	48 89 da             	mov    %rbx,%rdx
  401e5c:	48 89 ee             	mov    %rbp,%rsi
  401e5f:	44 89 e7             	mov    %r12d,%edi
  401e62:	e8 b9 ec ff ff       	callq  400b20 <write@plt>
  401e67:	48 85 c0             	test   %rax,%rax
  401e6a:	7f 0f                	jg     401e7b <rio_writen+0x3a>
  401e6c:	e8 7f ec ff ff       	callq  400af0 <__errno_location@plt>
  401e71:	83 38 04             	cmpl   $0x4,(%rax)
  401e74:	75 15                	jne    401e8b <rio_writen+0x4a>
  401e76:	b8 00 00 00 00       	mov    $0x0,%eax
  401e7b:	48 29 c3             	sub    %rax,%rbx
  401e7e:	48 01 c5             	add    %rax,%rbp
  401e81:	48 85 db             	test   %rbx,%rbx
  401e84:	75 d3                	jne    401e59 <rio_writen+0x18>
  401e86:	4c 89 e8             	mov    %r13,%rax
  401e89:	eb 07                	jmp    401e92 <rio_writen+0x51>
  401e8b:	48 c7 c0 ff ff ff ff 	mov    $0xffffffffffffffff,%rax
  401e92:	48 83 c4 08          	add    $0x8,%rsp
  401e96:	5b                   	pop    %rbx
  401e97:	5d                   	pop    %rbp
  401e98:	41 5c                	pop    %r12
  401e9a:	41 5d                	pop    %r13
  401e9c:	c3                   	retq   

0000000000401e9d <rio_read>:
  401e9d:	41 56                	push   %r14
  401e9f:	41 55                	push   %r13
  401ea1:	41 54                	push   %r12
  401ea3:	55                   	push   %rbp
  401ea4:	53                   	push   %rbx
  401ea5:	48 89 fb             	mov    %rdi,%rbx
  401ea8:	49 89 f6             	mov    %rsi,%r14
  401eab:	49 89 d5             	mov    %rdx,%r13
  401eae:	4c 8d 67 10          	lea    0x10(%rdi),%r12
  401eb2:	eb 2a                	jmp    401ede <rio_read+0x41>
  401eb4:	ba 00 20 00 00       	mov    $0x2000,%edx
  401eb9:	4c 89 e6             	mov    %r12,%rsi
  401ebc:	8b 3b                	mov    (%rbx),%edi
  401ebe:	e8 9d ec ff ff       	callq  400b60 <read@plt>
  401ec3:	89 43 04             	mov    %eax,0x4(%rbx)
  401ec6:	85 c0                	test   %eax,%eax
  401ec8:	79 0c                	jns    401ed6 <rio_read+0x39>
  401eca:	e8 21 ec ff ff       	callq  400af0 <__errno_location@plt>
  401ecf:	83 38 04             	cmpl   $0x4,(%rax)
  401ed2:	74 0a                	je     401ede <rio_read+0x41>
  401ed4:	eb 38                	jmp    401f0e <rio_read+0x71>
  401ed6:	85 c0                	test   %eax,%eax
  401ed8:	74 3d                	je     401f17 <rio_read+0x7a>
  401eda:	4c 89 63 08          	mov    %r12,0x8(%rbx)
  401ede:	8b 6b 04             	mov    0x4(%rbx),%ebp
  401ee1:	85 ed                	test   %ebp,%ebp
  401ee3:	7e cf                	jle    401eb4 <rio_read+0x17>
  401ee5:	48 63 c5             	movslq %ebp,%rax
  401ee8:	4c 39 e8             	cmp    %r13,%rax
  401eeb:	72 03                	jb     401ef0 <rio_read+0x53>
  401eed:	44 89 ed             	mov    %r13d,%ebp
  401ef0:	4c 63 e5             	movslq %ebp,%r12
  401ef3:	48 8b 73 08          	mov    0x8(%rbx),%rsi
  401ef7:	4c 89 e2             	mov    %r12,%rdx
  401efa:	4c 89 f7             	mov    %r14,%rdi
  401efd:	e8 ce ec ff ff       	callq  400bd0 <memcpy@plt>
  401f02:	4c 01 63 08          	add    %r12,0x8(%rbx)
  401f06:	29 6b 04             	sub    %ebp,0x4(%rbx)
  401f09:	4c 89 e0             	mov    %r12,%rax
  401f0c:	eb 0e                	jmp    401f1c <rio_read+0x7f>
  401f0e:	48 c7 c0 ff ff ff ff 	mov    $0xffffffffffffffff,%rax
  401f15:	eb 05                	jmp    401f1c <rio_read+0x7f>
  401f17:	b8 00 00 00 00       	mov    $0x0,%eax
  401f1c:	5b                   	pop    %rbx
  401f1d:	5d                   	pop    %rbp
  401f1e:	41 5c                	pop    %r12
  401f20:	41 5d                	pop    %r13
  401f22:	41 5e                	pop    %r14
  401f24:	c3                   	retq   

0000000000401f25 <rio_readlineb>:
  401f25:	41 55                	push   %r13
  401f27:	41 54                	push   %r12
  401f29:	55                   	push   %rbp
  401f2a:	53                   	push   %rbx
  401f2b:	48 83 ec 18          	sub    $0x18,%rsp
  401f2f:	49 89 fd             	mov    %rdi,%r13
  401f32:	48 89 f5             	mov    %rsi,%rbp
  401f35:	49 89 d4             	mov    %rdx,%r12
  401f38:	bb 01 00 00 00       	mov    $0x1,%ebx
  401f3d:	eb 3b                	jmp    401f7a <rio_readlineb+0x55>
  401f3f:	ba 01 00 00 00       	mov    $0x1,%edx
  401f44:	48 8d 74 24 0f       	lea    0xf(%rsp),%rsi
  401f49:	4c 89 ef             	mov    %r13,%rdi
  401f4c:	e8 4c ff ff ff       	callq  401e9d <rio_read>
  401f51:	83 f8 01             	cmp    $0x1,%eax
  401f54:	75 12                	jne    401f68 <rio_readlineb+0x43>
  401f56:	48 8d 55 01          	lea    0x1(%rbp),%rdx
  401f5a:	0f b6 44 24 0f       	movzbl 0xf(%rsp),%eax
  401f5f:	88 45 00             	mov    %al,0x0(%rbp)
  401f62:	3c 0a                	cmp    $0xa,%al
  401f64:	75 0e                	jne    401f74 <rio_readlineb+0x4f>
  401f66:	eb 1c                	jmp    401f84 <rio_readlineb+0x5f>
  401f68:	85 c0                	test   %eax,%eax
  401f6a:	75 24                	jne    401f90 <rio_readlineb+0x6b>
  401f6c:	83 fb 01             	cmp    $0x1,%ebx
  401f6f:	90                   	nop
  401f70:	75 15                	jne    401f87 <rio_readlineb+0x62>
  401f72:	eb 25                	jmp    401f99 <rio_readlineb+0x74>
  401f74:	83 c3 01             	add    $0x1,%ebx
  401f77:	48 89 d5             	mov    %rdx,%rbp
  401f7a:	48 63 c3             	movslq %ebx,%rax
  401f7d:	4c 39 e0             	cmp    %r12,%rax
  401f80:	72 bd                	jb     401f3f <rio_readlineb+0x1a>
  401f82:	eb 03                	jmp    401f87 <rio_readlineb+0x62>
  401f84:	48 89 d5             	mov    %rdx,%rbp
  401f87:	c6 45 00 00          	movb   $0x0,0x0(%rbp)
  401f8b:	48 63 c3             	movslq %ebx,%rax
  401f8e:	eb 0e                	jmp    401f9e <rio_readlineb+0x79>
  401f90:	48 c7 c0 ff ff ff ff 	mov    $0xffffffffffffffff,%rax
  401f97:	eb 05                	jmp    401f9e <rio_readlineb+0x79>
  401f99:	b8 00 00 00 00       	mov    $0x0,%eax
  401f9e:	48 83 c4 18          	add    $0x18,%rsp
  401fa2:	5b                   	pop    %rbx
  401fa3:	5d                   	pop    %rbp
  401fa4:	41 5c                	pop    %r12
  401fa6:	41 5d                	pop    %r13
  401fa8:	c3                   	retq   

0000000000401fa9 <submitr>:
  401fa9:	41 57                	push   %r15
  401fab:	41 56                	push   %r14
  401fad:	41 55                	push   %r13
  401faf:	41 54                	push   %r12
  401fb1:	55                   	push   %rbp
  401fb2:	53                   	push   %rbx
  401fb3:	48 81 ec 58 a0 00 00 	sub    $0xa058,%rsp
  401fba:	49 89 ff             	mov    %rdi,%r15
  401fbd:	89 74 24 14          	mov    %esi,0x14(%rsp)
  401fc1:	49 89 d4             	mov    %rdx,%r12
  401fc4:	49 89 cd             	mov    %rcx,%r13
  401fc7:	4c 89 44 24 18       	mov    %r8,0x18(%rsp)
  401fcc:	4d 89 ce             	mov    %r9,%r14
  401fcf:	48 8b 9c 24 98 a0 00 	mov    0xa098(%rsp),%rbx
  401fd6:	00 
  401fd7:	c7 84 24 2c 20 00 00 	movl   $0x0,0x202c(%rsp)
  401fde:	00 00 00 00 
  401fe2:	ba 00 00 00 00       	mov    $0x0,%edx
  401fe7:	be 01 00 00 00       	mov    $0x1,%esi
  401fec:	bf 02 00 00 00       	mov    $0x2,%edi
  401ff1:	e8 8a ec ff ff       	callq  400c80 <socket@plt>
  401ff6:	89 c5                	mov    %eax,%ebp
  401ff8:	85 c0                	test   %eax,%eax
  401ffa:	79 4e                	jns    40204a <submitr+0xa1>
  401ffc:	48 b8 45 72 72 6f 72 	movabs $0x43203a726f727245,%rax
  402003:	3a 20 43 
  402006:	48 89 03             	mov    %rax,(%rbx)
  402009:	48 b8 6c 69 65 6e 74 	movabs $0x6e7520746e65696c,%rax
  402010:	20 75 6e 
  402013:	48 89 43 08          	mov    %rax,0x8(%rbx)
  402017:	48 b8 61 62 6c 65 20 	movabs $0x206f7420656c6261,%rax
  40201e:	74 6f 20 
  402021:	48 89 43 10          	mov    %rax,0x10(%rbx)
  402025:	48 b8 63 72 65 61 74 	movabs $0x7320657461657263,%rax
  40202c:	65 20 73 
  40202f:	48 89 43 18          	mov    %rax,0x18(%rbx)
  402033:	c7 43 20 6f 63 6b 65 	movl   $0x656b636f,0x20(%rbx)
  40203a:	66 c7 43 24 74 00    	movw   $0x74,0x24(%rbx)
  402040:	b8 ff ff ff ff       	mov    $0xffffffff,%eax
  402045:	e9 e7 05 00 00       	jmpq   402631 <submitr+0x688>
  40204a:	4c 89 ff             	mov    %r15,%rdi
  40204d:	e8 4e eb ff ff       	callq  400ba0 <gethostbyname@plt>
  402052:	48 85 c0             	test   %rax,%rax
  402055:	75 67                	jne    4020be <submitr+0x115>
  402057:	48 b8 45 72 72 6f 72 	movabs $0x44203a726f727245,%rax
  40205e:	3a 20 44 
  402061:	48 89 03             	mov    %rax,(%rbx)
  402064:	48 b8 4e 53 20 69 73 	movabs $0x6e7520736920534e,%rax
  40206b:	20 75 6e 
  40206e:	48 89 43 08          	mov    %rax,0x8(%rbx)
  402072:	48 b8 61 62 6c 65 20 	movabs $0x206f7420656c6261,%rax
  402079:	74 6f 20 
  40207c:	48 89 43 10          	mov    %rax,0x10(%rbx)
  402080:	48 b8 72 65 73 6f 6c 	movabs $0x2065766c6f736572,%rax
  402087:	76 65 20 
  40208a:	48 89 43 18          	mov    %rax,0x18(%rbx)
  40208e:	48 b8 73 65 72 76 65 	movabs $0x6120726576726573,%rax
  402095:	72 20 61 
  402098:	48 89 43 20          	mov    %rax,0x20(%rbx)
  40209c:	c7 43 28 64 64 72 65 	movl   $0x65726464,0x28(%rbx)
  4020a3:	66 c7 43 2c 73 73    	movw   $0x7373,0x2c(%rbx)
  4020a9:	c6 43 2e 00          	movb   $0x0,0x2e(%rbx)
  4020ad:	89 ef                	mov    %ebp,%edi
  4020af:	e8 9c ea ff ff       	callq  400b50 <close@plt>
  4020b4:	b8 ff ff ff ff       	mov    $0xffffffff,%eax
  4020b9:	e9 73 05 00 00       	jmpq   402631 <submitr+0x688>
  4020be:	48 c7 84 24 40 a0 00 	movq   $0x0,0xa040(%rsp)
  4020c5:	00 00 00 00 00 
  4020ca:	48 c7 84 24 48 a0 00 	movq   $0x0,0xa048(%rsp)
  4020d1:	00 00 00 00 00 
  4020d6:	66 c7 84 24 40 a0 00 	movw   $0x2,0xa040(%rsp)
  4020dd:	00 02 00 
  4020e0:	48 8b 48 18          	mov    0x18(%rax),%rcx
  4020e4:	48 63 50 14          	movslq 0x14(%rax),%rdx
  4020e8:	48 8d b4 24 44 a0 00 	lea    0xa044(%rsp),%rsi
  4020ef:	00 
  4020f0:	48 8b 39             	mov    (%rcx),%rdi
  4020f3:	e8 08 eb ff ff       	callq  400c00 <bcopy@plt>
  4020f8:	0f b7 44 24 14       	movzwl 0x14(%rsp),%eax
  4020fd:	66 c1 c8 08          	ror    $0x8,%ax
  402101:	66 89 84 24 42 a0 00 	mov    %ax,0xa042(%rsp)
  402108:	00 
  402109:	ba 10 00 00 00       	mov    $0x10,%edx
  40210e:	48 8d b4 24 40 a0 00 	lea    0xa040(%rsp),%rsi
  402115:	00 
  402116:	89 ef                	mov    %ebp,%edi
  402118:	e8 33 eb ff ff       	callq  400c50 <connect@plt>
  40211d:	85 c0                	test   %eax,%eax
  40211f:	79 59                	jns    40217a <submitr+0x1d1>
  402121:	48 b8 45 72 72 6f 72 	movabs $0x55203a726f727245,%rax
  402128:	3a 20 55 
  40212b:	48 89 03             	mov    %rax,(%rbx)
  40212e:	48 b8 6e 61 62 6c 65 	movabs $0x6f7420656c62616e,%rax
  402135:	20 74 6f 
  402138:	48 89 43 08          	mov    %rax,0x8(%rbx)
  40213c:	48 b8 20 63 6f 6e 6e 	movabs $0x7463656e6e6f6320,%rax
  402143:	65 63 74 
  402146:	48 89 43 10          	mov    %rax,0x10(%rbx)
  40214a:	48 b8 20 74 6f 20 74 	movabs $0x20656874206f7420,%rax
  402151:	68 65 20 
  402154:	48 89 43 18          	mov    %rax,0x18(%rbx)
  402158:	c7 43 20 73 65 72 76 	movl   $0x76726573,0x20(%rbx)
  40215f:	66 c7 43 24 65 72    	movw   $0x7265,0x24(%rbx)
  402165:	c6 43 26 00          	movb   $0x0,0x26(%rbx)
  402169:	89 ef                	mov    %ebp,%edi
  40216b:	e8 e0 e9 ff ff       	callq  400b50 <close@plt>
  402170:	b8 ff ff ff ff       	mov    $0xffffffff,%eax
  402175:	e9 b7 04 00 00       	jmpq   402631 <submitr+0x688>
  40217a:	48 c7 c2 ff ff ff ff 	mov    $0xffffffffffffffff,%rdx
  402181:	48 8b bc 24 90 a0 00 	mov    0xa090(%rsp),%rdi
  402188:	00 
  402189:	b8 00 00 00 00       	mov    $0x0,%eax
  40218e:	48 89 d1             	mov    %rdx,%rcx
  402191:	f2 ae                	repnz scas %es:(%rdi),%al
  402193:	48 f7 d1             	not    %rcx
  402196:	48 89 ce             	mov    %rcx,%rsi
  402199:	4c 89 e7             	mov    %r12,%rdi
  40219c:	48 89 d1             	mov    %rdx,%rcx
  40219f:	f2 ae                	repnz scas %es:(%rdi),%al
  4021a1:	48 f7 d1             	not    %rcx
  4021a4:	49 89 c8             	mov    %rcx,%r8
  4021a7:	4c 89 ef             	mov    %r13,%rdi
  4021aa:	48 89 d1             	mov    %rdx,%rcx
  4021ad:	f2 ae                	repnz scas %es:(%rdi),%al
  4021af:	49 29 c8             	sub    %rcx,%r8
  4021b2:	4c 89 f7             	mov    %r14,%rdi
  4021b5:	48 89 d1             	mov    %rdx,%rcx
  4021b8:	f2 ae                	repnz scas %es:(%rdi),%al
  4021ba:	49 29 c8             	sub    %rcx,%r8
  4021bd:	48 8d 44 76 fd       	lea    -0x3(%rsi,%rsi,2),%rax
  4021c2:	49 8d 44 00 7b       	lea    0x7b(%r8,%rax,1),%rax
  4021c7:	48 3d 00 20 00 00    	cmp    $0x2000,%rax
  4021cd:	76 72                	jbe    402241 <submitr+0x298>
  4021cf:	48 b8 45 72 72 6f 72 	movabs $0x52203a726f727245,%rax
  4021d6:	3a 20 52 
  4021d9:	48 89 03             	mov    %rax,(%rbx)
  4021dc:	48 b8 65 73 75 6c 74 	movabs $0x747320746c757365,%rax
  4021e3:	20 73 74 
  4021e6:	48 89 43 08          	mov    %rax,0x8(%rbx)
  4021ea:	48 b8 72 69 6e 67 20 	movabs $0x6f6f7420676e6972,%rax
  4021f1:	74 6f 6f 
  4021f4:	48 89 43 10          	mov    %rax,0x10(%rbx)
  4021f8:	48 b8 20 6c 61 72 67 	movabs $0x202e656772616c20,%rax
  4021ff:	65 2e 20 
  402202:	48 89 43 18          	mov    %rax,0x18(%rbx)
  402206:	48 b8 49 6e 63 72 65 	movabs $0x6573616572636e49,%rax
  40220d:	61 73 65 
  402210:	48 89 43 20          	mov    %rax,0x20(%rbx)
  402214:	48 b8 20 53 55 42 4d 	movabs $0x5254494d42555320,%rax
  40221b:	49 54 52 
  40221e:	48 89 43 28          	mov    %rax,0x28(%rbx)
  402222:	48 b8 5f 4d 41 58 42 	movabs $0x46554258414d5f,%rax
  402229:	55 46 00 
  40222c:	48 89 43 30          	mov    %rax,0x30(%rbx)
  402230:	89 ef                	mov    %ebp,%edi
  402232:	e8 19 e9 ff ff       	callq  400b50 <close@plt>
  402237:	b8 ff ff ff ff       	mov    $0xffffffff,%eax
  40223c:	e9 f0 03 00 00       	jmpq   402631 <submitr+0x688>
  402241:	48 8d b4 24 30 40 00 	lea    0x4030(%rsp),%rsi
  402248:	00 
  402249:	b9 00 04 00 00       	mov    $0x400,%ecx
  40224e:	b8 00 00 00 00       	mov    $0x0,%eax
  402253:	48 89 f7             	mov    %rsi,%rdi
  402256:	f3 48 ab             	rep stos %rax,%es:(%rdi)
  402259:	48 8b bc 24 90 a0 00 	mov    0xa090(%rsp),%rdi
  402260:	00 
  402261:	e8 05 fb ff ff       	callq  401d6b <urlencode>
  402266:	85 c0                	test   %eax,%eax
  402268:	0f 89 8a 00 00 00    	jns    4022f8 <submitr+0x34f>
  40226e:	48 b8 45 72 72 6f 72 	movabs $0x52203a726f727245,%rax
  402275:	3a 20 52 
  402278:	48 89 03             	mov    %rax,(%rbx)
  40227b:	48 b8 65 73 75 6c 74 	movabs $0x747320746c757365,%rax
  402282:	20 73 74 
  402285:	48 89 43 08          	mov    %rax,0x8(%rbx)
  402289:	48 b8 72 69 6e 67 20 	movabs $0x6e6f6320676e6972,%rax
  402290:	63 6f 6e 
  402293:	48 89 43 10          	mov    %rax,0x10(%rbx)
  402297:	48 b8 74 61 69 6e 73 	movabs $0x6e6120736e696174,%rax
  40229e:	20 61 6e 
  4022a1:	48 89 43 18          	mov    %rax,0x18(%rbx)
  4022a5:	48 b8 20 69 6c 6c 65 	movabs $0x6c6167656c6c6920,%rax
  4022ac:	67 61 6c 
  4022af:	48 89 43 20          	mov    %rax,0x20(%rbx)
  4022b3:	48 b8 20 6f 72 20 75 	movabs $0x72706e7520726f20,%rax
  4022ba:	6e 70 72 
  4022bd:	48 89 43 28          	mov    %rax,0x28(%rbx)
  4022c1:	48 b8 69 6e 74 61 62 	movabs $0x20656c6261746e69,%rax
  4022c8:	6c 65 20 
  4022cb:	48 89 43 30          	mov    %rax,0x30(%rbx)
  4022cf:	48 b8 63 68 61 72 61 	movabs $0x6574636172616863,%rax
  4022d6:	63 74 65 
  4022d9:	48 89 43 38          	mov    %rax,0x38(%rbx)
  4022dd:	66 c7 43 40 72 2e    	movw   $0x2e72,0x40(%rbx)
  4022e3:	c6 43 42 00          	movb   $0x0,0x42(%rbx)
  4022e7:	89 ef                	mov    %ebp,%edi
  4022e9:	e8 62 e8 ff ff       	callq  400b50 <close@plt>
  4022ee:	b8 ff ff ff ff       	mov    $0xffffffff,%eax
  4022f3:	e9 39 03 00 00       	jmpq   402631 <submitr+0x688>
  4022f8:	48 8d 84 24 30 40 00 	lea    0x4030(%rsp),%rax
  4022ff:	00 
  402300:	48 89 04 24          	mov    %rax,(%rsp)
  402304:	4d 89 f1             	mov    %r14,%r9
  402307:	4c 8b 44 24 18       	mov    0x18(%rsp),%r8
  40230c:	4c 89 e9             	mov    %r13,%rcx
  40230f:	4c 89 e2             	mov    %r12,%rdx
  402312:	be 20 33 40 00       	mov    $0x403320,%esi
  402317:	48 8d bc 24 30 60 00 	lea    0x6030(%rsp),%rdi
  40231e:	00 
  40231f:	b8 00 00 00 00       	mov    $0x0,%eax
  402324:	e8 07 e9 ff ff       	callq  400c30 <sprintf@plt>
  402329:	48 8d bc 24 30 60 00 	lea    0x6030(%rsp),%rdi
  402330:	00 
  402331:	b8 00 00 00 00       	mov    $0x0,%eax
  402336:	48 c7 c1 ff ff ff ff 	mov    $0xffffffffffffffff,%rcx
  40233d:	f2 ae                	repnz scas %es:(%rdi),%al
  40233f:	48 f7 d1             	not    %rcx
  402342:	48 8d 51 ff          	lea    -0x1(%rcx),%rdx
  402346:	48 8d b4 24 30 60 00 	lea    0x6030(%rsp),%rsi
  40234d:	00 
  40234e:	89 ef                	mov    %ebp,%edi
  402350:	e8 ec fa ff ff       	callq  401e41 <rio_writen>
  402355:	48 85 c0             	test   %rax,%rax
  402358:	79 5d                	jns    4023b7 <submitr+0x40e>
  40235a:	48 b8 45 72 72 6f 72 	movabs $0x43203a726f727245,%rax
  402361:	3a 20 43 
  402364:	48 89 03             	mov    %rax,(%rbx)
  402367:	48 b8 6c 69 65 6e 74 	movabs $0x6e7520746e65696c,%rax
  40236e:	20 75 6e 
  402371:	48 89 43 08          	mov    %rax,0x8(%rbx)
  402375:	48 b8 61 62 6c 65 20 	movabs $0x206f7420656c6261,%rax
  40237c:	74 6f 20 
  40237f:	48 89 43 10          	mov    %rax,0x10(%rbx)
  402383:	48 b8 77 72 69 74 65 	movabs $0x6f74206574697277,%rax
  40238a:	20 74 6f 
  40238d:	48 89 43 18          	mov    %rax,0x18(%rbx)
  402391:	48 b8 20 74 68 65 20 	movabs $0x7265732065687420,%rax
  402398:	73 65 72 
  40239b:	48 89 43 20          	mov    %rax,0x20(%rbx)
  40239f:	c7 43 28 76 65 72 00 	movl   $0x726576,0x28(%rbx)
  4023a6:	89 ef                	mov    %ebp,%edi
  4023a8:	e8 a3 e7 ff ff       	callq  400b50 <close@plt>
  4023ad:	b8 ff ff ff ff       	mov    $0xffffffff,%eax
  4023b2:	e9 7a 02 00 00       	jmpq   402631 <submitr+0x688>
  4023b7:	89 ee                	mov    %ebp,%esi
  4023b9:	48 8d bc 24 30 80 00 	lea    0x8030(%rsp),%rdi
  4023c0:	00 
  4023c1:	e8 6a f9 ff ff       	callq  401d30 <rio_readinitb>
  4023c6:	ba 00 20 00 00       	mov    $0x2000,%edx
  4023cb:	48 8d b4 24 30 60 00 	lea    0x6030(%rsp),%rsi
  4023d2:	00 
  4023d3:	48 8d bc 24 30 80 00 	lea    0x8030(%rsp),%rdi
  4023da:	00 
  4023db:	e8 45 fb ff ff       	callq  401f25 <rio_readlineb>
  4023e0:	48 85 c0             	test   %rax,%rax
  4023e3:	7f 71                	jg     402456 <submitr+0x4ad>
  4023e5:	48 b8 45 72 72 6f 72 	movabs $0x43203a726f727245,%rax
  4023ec:	3a 20 43 
  4023ef:	48 89 03             	mov    %rax,(%rbx)
  4023f2:	48 b8 6c 69 65 6e 74 	movabs $0x6e7520746e65696c,%rax
  4023f9:	20 75 6e 
  4023fc:	48 89 43 08          	mov    %rax,0x8(%rbx)
  402400:	48 b8 61 62 6c 65 20 	movabs $0x206f7420656c6261,%rax
  402407:	74 6f 20 
  40240a:	48 89 43 10          	mov    %rax,0x10(%rbx)
  40240e:	48 b8 72 65 61 64 20 	movabs $0x7269662064616572,%rax
  402415:	66 69 72 
  402418:	48 89 43 18          	mov    %rax,0x18(%rbx)
  40241c:	48 b8 73 74 20 68 65 	movabs $0x6564616568207473,%rax
  402423:	61 64 65 
  402426:	48 89 43 20          	mov    %rax,0x20(%rbx)
  40242a:	48 b8 72 20 66 72 6f 	movabs $0x73206d6f72662072,%rax
  402431:	6d 20 73 
  402434:	48 89 43 28          	mov    %rax,0x28(%rbx)
  402438:	c7 43 30 65 72 76 65 	movl   $0x65767265,0x30(%rbx)
  40243f:	66 c7 43 34 72 00    	movw   $0x72,0x34(%rbx)
  402445:	89 ef                	mov    %ebp,%edi
  402447:	e8 04 e7 ff ff       	callq  400b50 <close@plt>
  40244c:	b8 ff ff ff ff       	mov    $0xffffffff,%eax
  402451:	e9 db 01 00 00       	jmpq   402631 <submitr+0x688>
  402456:	4c 8d 44 24 20       	lea    0x20(%rsp),%r8
  40245b:	48 8d 8c 24 2c 20 00 	lea    0x202c(%rsp),%rcx
  402462:	00 
  402463:	48 8d 94 24 30 20 00 	lea    0x2030(%rsp),%rdx
  40246a:	00 
  40246b:	be d7 33 40 00       	mov    $0x4033d7,%esi
  402470:	48 8d bc 24 30 60 00 	lea    0x6030(%rsp),%rdi
  402477:	00 
  402478:	b8 00 00 00 00       	mov    $0x0,%eax
  40247d:	e8 6e e7 ff ff       	callq  400bf0 <__isoc99_sscanf@plt>
  402482:	8b 94 24 2c 20 00 00 	mov    0x202c(%rsp),%edx
  402489:	81 fa c8 00 00 00    	cmp    $0xc8,%edx
  40248f:	0f 84 af 00 00 00    	je     402544 <submitr+0x59b>
  402495:	48 8d 4c 24 20       	lea    0x20(%rsp),%rcx
  40249a:	be 78 33 40 00       	mov    $0x403378,%esi
  40249f:	48 89 df             	mov    %rbx,%rdi
  4024a2:	b8 00 00 00 00       	mov    $0x0,%eax
  4024a7:	e8 84 e7 ff ff       	callq  400c30 <sprintf@plt>
  4024ac:	89 ef                	mov    %ebp,%edi
  4024ae:	e8 9d e6 ff ff       	callq  400b50 <close@plt>
  4024b3:	b8 ff ff ff ff       	mov    $0xffffffff,%eax
  4024b8:	e9 74 01 00 00       	jmpq   402631 <submitr+0x688>
  4024bd:	ba 00 20 00 00       	mov    $0x2000,%edx
  4024c2:	48 8d b4 24 30 60 00 	lea    0x6030(%rsp),%rsi
  4024c9:	00 
  4024ca:	48 8d bc 24 30 80 00 	lea    0x8030(%rsp),%rdi
  4024d1:	00 
  4024d2:	e8 4e fa ff ff       	callq  401f25 <rio_readlineb>
  4024d7:	48 85 c0             	test   %rax,%rax
  4024da:	7f 68                	jg     402544 <submitr+0x59b>
  4024dc:	48 b8 45 72 72 6f 72 	movabs $0x43203a726f727245,%rax
  4024e3:	3a 20 43 
  4024e6:	48 89 03             	mov    %rax,(%rbx)
  4024e9:	48 b8 6c 69 65 6e 74 	movabs $0x6e7520746e65696c,%rax
  4024f0:	20 75 6e 
  4024f3:	48 89 43 08          	mov    %rax,0x8(%rbx)
  4024f7:	48 b8 61 62 6c 65 20 	movabs $0x206f7420656c6261,%rax
  4024fe:	74 6f 20 
  402501:	48 89 43 10          	mov    %rax,0x10(%rbx)
  402505:	48 b8 72 65 61 64 20 	movabs $0x6165682064616572,%rax
  40250c:	68 65 61 
  40250f:	48 89 43 18          	mov    %rax,0x18(%rbx)
  402513:	48 b8 64 65 72 73 20 	movabs $0x6f72662073726564,%rax
  40251a:	66 72 6f 
  40251d:	48 89 43 20          	mov    %rax,0x20(%rbx)
  402521:	48 b8 6d 20 73 65 72 	movabs $0x726576726573206d,%rax
  402528:	76 65 72 
  40252b:	48 89 43 28          	mov    %rax,0x28(%rbx)
  40252f:	c6 43 30 00          	movb   $0x0,0x30(%rbx)
  402533:	89 ef                	mov    %ebp,%edi
  402535:	e8 16 e6 ff ff       	callq  400b50 <close@plt>
  40253a:	b8 ff ff ff ff       	mov    $0xffffffff,%eax
  40253f:	e9 ed 00 00 00       	jmpq   402631 <submitr+0x688>
  402544:	0f b6 84 24 30 60 00 	movzbl 0x6030(%rsp),%eax
  40254b:	00 
  40254c:	83 e8 0d             	sub    $0xd,%eax
  40254f:	75 15                	jne    402566 <submitr+0x5bd>
  402551:	0f b6 84 24 31 60 00 	movzbl 0x6031(%rsp),%eax
  402558:	00 
  402559:	83 e8 0a             	sub    $0xa,%eax
  40255c:	75 08                	jne    402566 <submitr+0x5bd>
  40255e:	0f b6 84 24 32 60 00 	movzbl 0x6032(%rsp),%eax
  402565:	00 
  402566:	85 c0                	test   %eax,%eax
  402568:	0f 85 4f ff ff ff    	jne    4024bd <submitr+0x514>
  40256e:	ba 00 20 00 00       	mov    $0x2000,%edx
  402573:	48 8d b4 24 30 60 00 	lea    0x6030(%rsp),%rsi
  40257a:	00 
  40257b:	48 8d bc 24 30 80 00 	lea    0x8030(%rsp),%rdi
  402582:	00 
  402583:	e8 9d f9 ff ff       	callq  401f25 <rio_readlineb>
  402588:	48 85 c0             	test   %rax,%rax
  40258b:	7f 6f                	jg     4025fc <submitr+0x653>
  40258d:	48 b8 45 72 72 6f 72 	movabs $0x43203a726f727245,%rax
  402594:	3a 20 43 
  402597:	48 89 03             	mov    %rax,(%rbx)
  40259a:	48 b8 6c 69 65 6e 74 	movabs $0x6e7520746e65696c,%rax
  4025a1:	20 75 6e 
  4025a4:	48 89 43 08          	mov    %rax,0x8(%rbx)
  4025a8:	48 b8 61 62 6c 65 20 	movabs $0x206f7420656c6261,%rax
  4025af:	74 6f 20 
  4025b2:	48 89 43 10          	mov    %rax,0x10(%rbx)
  4025b6:	48 b8 72 65 61 64 20 	movabs $0x6174732064616572,%rax
  4025bd:	73 74 61 
  4025c0:	48 89 43 18          	mov    %rax,0x18(%rbx)
  4025c4:	48 b8 74 75 73 20 6d 	movabs $0x7373656d20737574,%rax
  4025cb:	65 73 73 
  4025ce:	48 89 43 20          	mov    %rax,0x20(%rbx)
  4025d2:	48 b8 61 67 65 20 66 	movabs $0x6d6f726620656761,%rax
  4025d9:	72 6f 6d 
  4025dc:	48 89 43 28          	mov    %rax,0x28(%rbx)
  4025e0:	48 b8 20 73 65 72 76 	movabs $0x72657672657320,%rax
  4025e7:	65 72 00 
  4025ea:	48 89 43 30          	mov    %rax,0x30(%rbx)
  4025ee:	89 ef                	mov    %ebp,%edi
  4025f0:	e8 5b e5 ff ff       	callq  400b50 <close@plt>
  4025f5:	b8 ff ff ff ff       	mov    $0xffffffff,%eax
  4025fa:	eb 35                	jmp    402631 <submitr+0x688>
  4025fc:	48 8d b4 24 30 60 00 	lea    0x6030(%rsp),%rsi
  402603:	00 
  402604:	48 89 df             	mov    %rbx,%rdi
  402607:	e8 f4 e4 ff ff       	callq  400b00 <strcpy@plt>
  40260c:	89 ef                	mov    %ebp,%edi
  40260e:	e8 3d e5 ff ff       	callq  400b50 <close@plt>
  402613:	0f b6 03             	movzbl (%rbx),%eax
  402616:	83 e8 4f             	sub    $0x4f,%eax
  402619:	75 0d                	jne    402628 <submitr+0x67f>
  40261b:	0f b6 43 01          	movzbl 0x1(%rbx),%eax
  40261f:	83 e8 4b             	sub    $0x4b,%eax
  402622:	75 04                	jne    402628 <submitr+0x67f>
  402624:	0f b6 43 02          	movzbl 0x2(%rbx),%eax
  402628:	85 c0                	test   %eax,%eax
  40262a:	74 05                	je     402631 <submitr+0x688>
  40262c:	b8 ff ff ff ff       	mov    $0xffffffff,%eax
  402631:	48 81 c4 58 a0 00 00 	add    $0xa058,%rsp
  402638:	5b                   	pop    %rbx
  402639:	5d                   	pop    %rbp
  40263a:	41 5c                	pop    %r12
  40263c:	41 5d                	pop    %r13
  40263e:	41 5e                	pop    %r14
  402640:	41 5f                	pop    %r15
  402642:	c3                   	retq   

0000000000402643 <init_timeout>:
  402643:	53                   	push   %rbx
  402644:	89 fb                	mov    %edi,%ebx
  402646:	85 ff                	test   %edi,%edi
  402648:	74 1f                	je     402669 <init_timeout+0x26>
  40264a:	85 ff                	test   %edi,%edi
  40264c:	79 05                	jns    402653 <init_timeout+0x10>
  40264e:	bb 00 00 00 00       	mov    $0x0,%ebx
  402653:	be 42 1d 40 00       	mov    $0x401d42,%esi
  402658:	bf 0e 00 00 00       	mov    $0xe,%edi
  40265d:	e8 2e e5 ff ff       	callq  400b90 <signal@plt>
  402662:	89 df                	mov    %ebx,%edi
  402664:	e8 d7 e4 ff ff       	callq  400b40 <alarm@plt>
  402669:	5b                   	pop    %rbx
  40266a:	c3                   	retq   

000000000040266b <init_driver>:
  40266b:	55                   	push   %rbp
  40266c:	53                   	push   %rbx
  40266d:	48 83 ec 18          	sub    $0x18,%rsp
  402671:	48 89 fd             	mov    %rdi,%rbp
  402674:	be 01 00 00 00       	mov    $0x1,%esi
  402679:	bf 0d 00 00 00       	mov    $0xd,%edi
  40267e:	e8 0d e5 ff ff       	callq  400b90 <signal@plt>
  402683:	be 01 00 00 00       	mov    $0x1,%esi
  402688:	bf 1d 00 00 00       	mov    $0x1d,%edi
  40268d:	e8 fe e4 ff ff       	callq  400b90 <signal@plt>
  402692:	be 01 00 00 00       	mov    $0x1,%esi
  402697:	bf 1d 00 00 00       	mov    $0x1d,%edi
  40269c:	e8 ef e4 ff ff       	callq  400b90 <signal@plt>
  4026a1:	ba 00 00 00 00       	mov    $0x0,%edx
  4026a6:	be 01 00 00 00       	mov    $0x1,%esi
  4026ab:	bf 02 00 00 00       	mov    $0x2,%edi
  4026b0:	e8 cb e5 ff ff       	callq  400c80 <socket@plt>
  4026b5:	89 c3                	mov    %eax,%ebx
  4026b7:	85 c0                	test   %eax,%eax
  4026b9:	79 4f                	jns    40270a <init_driver+0x9f>
  4026bb:	48 b8 45 72 72 6f 72 	movabs $0x43203a726f727245,%rax
  4026c2:	3a 20 43 
  4026c5:	48 89 45 00          	mov    %rax,0x0(%rbp)
  4026c9:	48 b8 6c 69 65 6e 74 	movabs $0x6e7520746e65696c,%rax
  4026d0:	20 75 6e 
  4026d3:	48 89 45 08          	mov    %rax,0x8(%rbp)
  4026d7:	48 b8 61 62 6c 65 20 	movabs $0x206f7420656c6261,%rax
  4026de:	74 6f 20 
  4026e1:	48 89 45 10          	mov    %rax,0x10(%rbp)
  4026e5:	48 b8 63 72 65 61 74 	movabs $0x7320657461657263,%rax
  4026ec:	65 20 73 
  4026ef:	48 89 45 18          	mov    %rax,0x18(%rbp)
  4026f3:	c7 45 20 6f 63 6b 65 	movl   $0x656b636f,0x20(%rbp)
  4026fa:	66 c7 45 24 74 00    	movw   $0x74,0x24(%rbp)
  402700:	b8 ff ff ff ff       	mov    $0xffffffff,%eax
  402705:	e9 f8 00 00 00       	jmpq   402802 <init_driver+0x197>
  40270a:	bf e8 33 40 00       	mov    $0x4033e8,%edi
  40270f:	e8 8c e4 ff ff       	callq  400ba0 <gethostbyname@plt>
  402714:	48 85 c0             	test   %rax,%rax
  402717:	75 68                	jne    402781 <init_driver+0x116>
  402719:	48 b8 45 72 72 6f 72 	movabs $0x44203a726f727245,%rax
  402720:	3a 20 44 
  402723:	48 89 45 00          	mov    %rax,0x0(%rbp)
  402727:	48 b8 4e 53 20 69 73 	movabs $0x6e7520736920534e,%rax
  40272e:	20 75 6e 
  402731:	48 89 45 08          	mov    %rax,0x8(%rbp)
  402735:	48 b8 61 62 6c 65 20 	movabs $0x206f7420656c6261,%rax
  40273c:	74 6f 20 
  40273f:	48 89 45 10          	mov    %rax,0x10(%rbp)
  402743:	48 b8 72 65 73 6f 6c 	movabs $0x2065766c6f736572,%rax
  40274a:	76 65 20 
  40274d:	48 89 45 18          	mov    %rax,0x18(%rbp)
  402751:	48 b8 73 65 72 76 65 	movabs $0x6120726576726573,%rax
  402758:	72 20 61 
  40275b:	48 89 45 20          	mov    %rax,0x20(%rbp)
  40275f:	c7 45 28 64 64 72 65 	movl   $0x65726464,0x28(%rbp)
  402766:	66 c7 45 2c 73 73    	movw   $0x7373,0x2c(%rbp)
  40276c:	c6 45 2e 00          	movb   $0x0,0x2e(%rbp)
  402770:	89 df                	mov    %ebx,%edi
  402772:	e8 d9 e3 ff ff       	callq  400b50 <close@plt>
  402777:	b8 ff ff ff ff       	mov    $0xffffffff,%eax
  40277c:	e9 81 00 00 00       	jmpq   402802 <init_driver+0x197>
  402781:	48 c7 04 24 00 00 00 	movq   $0x0,(%rsp)
  402788:	00 
  402789:	48 c7 44 24 08 00 00 	movq   $0x0,0x8(%rsp)
  402790:	00 00 
  402792:	66 c7 04 24 02 00    	movw   $0x2,(%rsp)
  402798:	48 8b 48 18          	mov    0x18(%rax),%rcx
  40279c:	48 63 50 14          	movslq 0x14(%rax),%rdx
  4027a0:	48 8d 74 24 04       	lea    0x4(%rsp),%rsi
  4027a5:	48 8b 39             	mov    (%rcx),%rdi
  4027a8:	e8 53 e4 ff ff       	callq  400c00 <bcopy@plt>
  4027ad:	66 c7 44 24 02 3b 6e 	movw   $0x6e3b,0x2(%rsp)
  4027b4:	ba 10 00 00 00       	mov    $0x10,%edx
  4027b9:	48 89 e6             	mov    %rsp,%rsi
  4027bc:	89 df                	mov    %ebx,%edi
  4027be:	e8 8d e4 ff ff       	callq  400c50 <connect@plt>
  4027c3:	85 c0                	test   %eax,%eax
  4027c5:	79 25                	jns    4027ec <init_driver+0x181>
  4027c7:	ba e8 33 40 00       	mov    $0x4033e8,%edx
  4027cc:	be a8 33 40 00       	mov    $0x4033a8,%esi
  4027d1:	48 89 ef             	mov    %rbp,%rdi
  4027d4:	b8 00 00 00 00       	mov    $0x0,%eax
  4027d9:	e8 52 e4 ff ff       	callq  400c30 <sprintf@plt>
  4027de:	89 df                	mov    %ebx,%edi
  4027e0:	e8 6b e3 ff ff       	callq  400b50 <close@plt>
  4027e5:	b8 ff ff ff ff       	mov    $0xffffffff,%eax
  4027ea:	eb 16                	jmp    402802 <init_driver+0x197>
  4027ec:	89 df                	mov    %ebx,%edi
  4027ee:	e8 5d e3 ff ff       	callq  400b50 <close@plt>
  4027f3:	66 c7 45 00 4f 4b    	movw   $0x4b4f,0x0(%rbp)
  4027f9:	c6 45 02 00          	movb   $0x0,0x2(%rbp)
  4027fd:	b8 00 00 00 00       	mov    $0x0,%eax
  402802:	48 83 c4 18          	add    $0x18,%rsp
  402806:	5b                   	pop    %rbx
  402807:	5d                   	pop    %rbp
  402808:	c3                   	retq   

0000000000402809 <driver_post>:
  402809:	53                   	push   %rbx
  40280a:	48 83 ec 10          	sub    $0x10,%rsp
  40280e:	4c 89 c3             	mov    %r8,%rbx
  402811:	85 c9                	test   %ecx,%ecx
  402813:	74 22                	je     402837 <driver_post+0x2e>
  402815:	48 89 d6             	mov    %rdx,%rsi
  402818:	bf fb 33 40 00       	mov    $0x4033fb,%edi
  40281d:	b8 00 00 00 00       	mov    $0x0,%eax
  402822:	e8 09 e3 ff ff       	callq  400b30 <printf@plt>
  402827:	66 c7 03 4f 4b       	movw   $0x4b4f,(%rbx)
  40282c:	c6 43 02 00          	movb   $0x0,0x2(%rbx)
  402830:	b8 00 00 00 00       	mov    $0x0,%eax
  402835:	eb 43                	jmp    40287a <driver_post+0x71>
  402837:	48 85 ff             	test   %rdi,%rdi
  40283a:	74 30                	je     40286c <driver_post+0x63>
  40283c:	80 3f 00             	cmpb   $0x0,(%rdi)
  40283f:	74 2b                	je     40286c <driver_post+0x63>
  402841:	4c 89 44 24 08       	mov    %r8,0x8(%rsp)
  402846:	48 89 14 24          	mov    %rdx,(%rsp)
  40284a:	41 b9 12 34 40 00    	mov    $0x403412,%r9d
  402850:	49 89 f0             	mov    %rsi,%r8
  402853:	48 89 f9             	mov    %rdi,%rcx
  402856:	ba 17 34 40 00       	mov    $0x403417,%edx
  40285b:	be 6e 3b 00 00       	mov    $0x3b6e,%esi
  402860:	bf e8 33 40 00       	mov    $0x4033e8,%edi
  402865:	e8 3f f7 ff ff       	callq  401fa9 <submitr>
  40286a:	eb 0e                	jmp    40287a <driver_post+0x71>
  40286c:	66 c7 03 4f 4b       	movw   $0x4b4f,(%rbx)
  402871:	c6 43 02 00          	movb   $0x0,0x2(%rbx)
  402875:	b8 00 00 00 00       	mov    $0x0,%eax
  40287a:	48 83 c4 10          	add    $0x10,%rsp
  40287e:	5b                   	pop    %rbx
  40287f:	c3                   	retq   

0000000000402880 <__libc_csu_init>:
  402880:	41 57                	push   %r15
  402882:	41 89 ff             	mov    %edi,%r15d
  402885:	41 56                	push   %r14
  402887:	49 89 f6             	mov    %rsi,%r14
  40288a:	41 55                	push   %r13
  40288c:	49 89 d5             	mov    %rdx,%r13
  40288f:	41 54                	push   %r12
  402891:	4c 8d 25 78 15 20 00 	lea    0x201578(%rip),%r12        # 603e10 <__frame_dummy_init_array_entry>
  402898:	55                   	push   %rbp
  402899:	48 8d 2d 78 15 20 00 	lea    0x201578(%rip),%rbp        # 603e18 <__init_array_end>
  4028a0:	53                   	push   %rbx
  4028a1:	4c 29 e5             	sub    %r12,%rbp
  4028a4:	31 db                	xor    %ebx,%ebx
  4028a6:	48 c1 fd 03          	sar    $0x3,%rbp
  4028aa:	48 83 ec 08          	sub    $0x8,%rsp
  4028ae:	e8 e5 e1 ff ff       	callq  400a98 <_init>
  4028b3:	48 85 ed             	test   %rbp,%rbp
  4028b6:	74 1e                	je     4028d6 <__libc_csu_init+0x56>
  4028b8:	0f 1f 84 00 00 00 00 	nopl   0x0(%rax,%rax,1)
  4028bf:	00 
  4028c0:	4c 89 ea             	mov    %r13,%rdx
  4028c3:	4c 89 f6             	mov    %r14,%rsi
  4028c6:	44 89 ff             	mov    %r15d,%edi
  4028c9:	41 ff 14 dc          	callq  *(%r12,%rbx,8)
  4028cd:	48 83 c3 01          	add    $0x1,%rbx
  4028d1:	48 39 eb             	cmp    %rbp,%rbx
  4028d4:	75 ea                	jne    4028c0 <__libc_csu_init+0x40>
  4028d6:	48 83 c4 08          	add    $0x8,%rsp
  4028da:	5b                   	pop    %rbx
  4028db:	5d                   	pop    %rbp
  4028dc:	41 5c                	pop    %r12
  4028de:	41 5d                	pop    %r13
  4028e0:	41 5e                	pop    %r14
  4028e2:	41 5f                	pop    %r15
  4028e4:	c3                   	retq   
  4028e5:	90                   	nop
  4028e6:	66 2e 0f 1f 84 00 00 	nopw   %cs:0x0(%rax,%rax,1)
  4028ed:	00 00 00 

00000000004028f0 <__libc_csu_fini>:
  4028f0:	f3 c3                	repz retq 

Disassembly of section .fini:

00000000004028f4 <_fini>:
  4028f4:	48 83 ec 08          	sub    $0x8,%rsp
  4028f8:	48 83 c4 08          	add    $0x8,%rsp
  4028fc:	c3                   	retq   
