
rtarget:     file format elf64-x86-64


Disassembly of section .init:

0000000000400bc8 <_init>:
  400bc8:	48 83 ec 08          	sub    $0x8,%rsp
  400bcc:	48 8b 05 25 44 20 00 	mov    0x204425(%rip),%rax        # 604ff8 <__gmon_start__>
  400bd3:	48 85 c0             	test   %rax,%rax
  400bd6:	74 05                	je     400bdd <_init+0x15>
  400bd8:	e8 33 01 00 00       	callq  400d10 <__gmon_start__@plt>
  400bdd:	48 83 c4 08          	add    $0x8,%rsp
  400be1:	c3                   	retq   

Disassembly of section .plt:

0000000000400bf0 <.plt>:
  400bf0:	ff 35 12 44 20 00    	pushq  0x204412(%rip)        # 605008 <_GLOBAL_OFFSET_TABLE_+0x8>
  400bf6:	ff 25 14 44 20 00    	jmpq   *0x204414(%rip)        # 605010 <_GLOBAL_OFFSET_TABLE_+0x10>
  400bfc:	0f 1f 40 00          	nopl   0x0(%rax)

0000000000400c00 <strcasecmp@plt>:
  400c00:	ff 25 12 44 20 00    	jmpq   *0x204412(%rip)        # 605018 <strcasecmp@GLIBC_2.2.5>
  400c06:	68 00 00 00 00       	pushq  $0x0
  400c0b:	e9 e0 ff ff ff       	jmpq   400bf0 <.plt>

0000000000400c10 <__errno_location@plt>:
  400c10:	ff 25 0a 44 20 00    	jmpq   *0x20440a(%rip)        # 605020 <__errno_location@GLIBC_2.2.5>
  400c16:	68 01 00 00 00       	pushq  $0x1
  400c1b:	e9 d0 ff ff ff       	jmpq   400bf0 <.plt>

0000000000400c20 <srandom@plt>:
  400c20:	ff 25 02 44 20 00    	jmpq   *0x204402(%rip)        # 605028 <srandom@GLIBC_2.2.5>
  400c26:	68 02 00 00 00       	pushq  $0x2
  400c2b:	e9 c0 ff ff ff       	jmpq   400bf0 <.plt>

0000000000400c30 <strncmp@plt>:
  400c30:	ff 25 fa 43 20 00    	jmpq   *0x2043fa(%rip)        # 605030 <strncmp@GLIBC_2.2.5>
  400c36:	68 03 00 00 00       	pushq  $0x3
  400c3b:	e9 b0 ff ff ff       	jmpq   400bf0 <.plt>

0000000000400c40 <strcpy@plt>:
  400c40:	ff 25 f2 43 20 00    	jmpq   *0x2043f2(%rip)        # 605038 <strcpy@GLIBC_2.2.5>
  400c46:	68 04 00 00 00       	pushq  $0x4
  400c4b:	e9 a0 ff ff ff       	jmpq   400bf0 <.plt>

0000000000400c50 <puts@plt>:
  400c50:	ff 25 ea 43 20 00    	jmpq   *0x2043ea(%rip)        # 605040 <puts@GLIBC_2.2.5>
  400c56:	68 05 00 00 00       	pushq  $0x5
  400c5b:	e9 90 ff ff ff       	jmpq   400bf0 <.plt>

0000000000400c60 <write@plt>:
  400c60:	ff 25 e2 43 20 00    	jmpq   *0x2043e2(%rip)        # 605048 <write@GLIBC_2.2.5>
  400c66:	68 06 00 00 00       	pushq  $0x6
  400c6b:	e9 80 ff ff ff       	jmpq   400bf0 <.plt>

0000000000400c70 <mmap@plt>:
  400c70:	ff 25 da 43 20 00    	jmpq   *0x2043da(%rip)        # 605050 <mmap@GLIBC_2.2.5>
  400c76:	68 07 00 00 00       	pushq  $0x7
  400c7b:	e9 70 ff ff ff       	jmpq   400bf0 <.plt>

0000000000400c80 <printf@plt>:
  400c80:	ff 25 d2 43 20 00    	jmpq   *0x2043d2(%rip)        # 605058 <printf@GLIBC_2.2.5>
  400c86:	68 08 00 00 00       	pushq  $0x8
  400c8b:	e9 60 ff ff ff       	jmpq   400bf0 <.plt>

0000000000400c90 <memset@plt>:
  400c90:	ff 25 ca 43 20 00    	jmpq   *0x2043ca(%rip)        # 605060 <memset@GLIBC_2.2.5>
  400c96:	68 09 00 00 00       	pushq  $0x9
  400c9b:	e9 50 ff ff ff       	jmpq   400bf0 <.plt>

0000000000400ca0 <alarm@plt>:
  400ca0:	ff 25 c2 43 20 00    	jmpq   *0x2043c2(%rip)        # 605068 <alarm@GLIBC_2.2.5>
  400ca6:	68 0a 00 00 00       	pushq  $0xa
  400cab:	e9 40 ff ff ff       	jmpq   400bf0 <.plt>

0000000000400cb0 <close@plt>:
  400cb0:	ff 25 ba 43 20 00    	jmpq   *0x2043ba(%rip)        # 605070 <close@GLIBC_2.2.5>
  400cb6:	68 0b 00 00 00       	pushq  $0xb
  400cbb:	e9 30 ff ff ff       	jmpq   400bf0 <.plt>

0000000000400cc0 <read@plt>:
  400cc0:	ff 25 b2 43 20 00    	jmpq   *0x2043b2(%rip)        # 605078 <read@GLIBC_2.2.5>
  400cc6:	68 0c 00 00 00       	pushq  $0xc
  400ccb:	e9 20 ff ff ff       	jmpq   400bf0 <.plt>

0000000000400cd0 <__libc_start_main@plt>:
  400cd0:	ff 25 aa 43 20 00    	jmpq   *0x2043aa(%rip)        # 605080 <__libc_start_main@GLIBC_2.2.5>
  400cd6:	68 0d 00 00 00       	pushq  $0xd
  400cdb:	e9 10 ff ff ff       	jmpq   400bf0 <.plt>

0000000000400ce0 <signal@plt>:
  400ce0:	ff 25 a2 43 20 00    	jmpq   *0x2043a2(%rip)        # 605088 <signal@GLIBC_2.2.5>
  400ce6:	68 0e 00 00 00       	pushq  $0xe
  400ceb:	e9 00 ff ff ff       	jmpq   400bf0 <.plt>

0000000000400cf0 <gethostbyname@plt>:
  400cf0:	ff 25 9a 43 20 00    	jmpq   *0x20439a(%rip)        # 605090 <gethostbyname@GLIBC_2.2.5>
  400cf6:	68 0f 00 00 00       	pushq  $0xf
  400cfb:	e9 f0 fe ff ff       	jmpq   400bf0 <.plt>

0000000000400d00 <fprintf@plt>:
  400d00:	ff 25 92 43 20 00    	jmpq   *0x204392(%rip)        # 605098 <fprintf@GLIBC_2.2.5>
  400d06:	68 10 00 00 00       	pushq  $0x10
  400d0b:	e9 e0 fe ff ff       	jmpq   400bf0 <.plt>

0000000000400d10 <__gmon_start__@plt>:
  400d10:	ff 25 8a 43 20 00    	jmpq   *0x20438a(%rip)        # 6050a0 <__gmon_start__>
  400d16:	68 11 00 00 00       	pushq  $0x11
  400d1b:	e9 d0 fe ff ff       	jmpq   400bf0 <.plt>

0000000000400d20 <strtol@plt>:
  400d20:	ff 25 82 43 20 00    	jmpq   *0x204382(%rip)        # 6050a8 <strtol@GLIBC_2.2.5>
  400d26:	68 12 00 00 00       	pushq  $0x12
  400d2b:	e9 c0 fe ff ff       	jmpq   400bf0 <.plt>

0000000000400d30 <memcpy@plt>:
  400d30:	ff 25 7a 43 20 00    	jmpq   *0x20437a(%rip)        # 6050b0 <memcpy@GLIBC_2.14>
  400d36:	68 13 00 00 00       	pushq  $0x13
  400d3b:	e9 b0 fe ff ff       	jmpq   400bf0 <.plt>

0000000000400d40 <time@plt>:
  400d40:	ff 25 72 43 20 00    	jmpq   *0x204372(%rip)        # 6050b8 <time@GLIBC_2.2.5>
  400d46:	68 14 00 00 00       	pushq  $0x14
  400d4b:	e9 a0 fe ff ff       	jmpq   400bf0 <.plt>

0000000000400d50 <random@plt>:
  400d50:	ff 25 6a 43 20 00    	jmpq   *0x20436a(%rip)        # 6050c0 <random@GLIBC_2.2.5>
  400d56:	68 15 00 00 00       	pushq  $0x15
  400d5b:	e9 90 fe ff ff       	jmpq   400bf0 <.plt>

0000000000400d60 <_IO_getc@plt>:
  400d60:	ff 25 62 43 20 00    	jmpq   *0x204362(%rip)        # 6050c8 <_IO_getc@GLIBC_2.2.5>
  400d66:	68 16 00 00 00       	pushq  $0x16
  400d6b:	e9 80 fe ff ff       	jmpq   400bf0 <.plt>

0000000000400d70 <__isoc99_sscanf@plt>:
  400d70:	ff 25 5a 43 20 00    	jmpq   *0x20435a(%rip)        # 6050d0 <__isoc99_sscanf@GLIBC_2.7>
  400d76:	68 17 00 00 00       	pushq  $0x17
  400d7b:	e9 70 fe ff ff       	jmpq   400bf0 <.plt>

0000000000400d80 <munmap@plt>:
  400d80:	ff 25 52 43 20 00    	jmpq   *0x204352(%rip)        # 6050d8 <munmap@GLIBC_2.2.5>
  400d86:	68 18 00 00 00       	pushq  $0x18
  400d8b:	e9 60 fe ff ff       	jmpq   400bf0 <.plt>

0000000000400d90 <bcopy@plt>:
  400d90:	ff 25 4a 43 20 00    	jmpq   *0x20434a(%rip)        # 6050e0 <bcopy@GLIBC_2.2.5>
  400d96:	68 19 00 00 00       	pushq  $0x19
  400d9b:	e9 50 fe ff ff       	jmpq   400bf0 <.plt>

0000000000400da0 <fopen@plt>:
  400da0:	ff 25 42 43 20 00    	jmpq   *0x204342(%rip)        # 6050e8 <fopen@GLIBC_2.2.5>
  400da6:	68 1a 00 00 00       	pushq  $0x1a
  400dab:	e9 40 fe ff ff       	jmpq   400bf0 <.plt>

0000000000400db0 <getopt@plt>:
  400db0:	ff 25 3a 43 20 00    	jmpq   *0x20433a(%rip)        # 6050f0 <getopt@GLIBC_2.2.5>
  400db6:	68 1b 00 00 00       	pushq  $0x1b
  400dbb:	e9 30 fe ff ff       	jmpq   400bf0 <.plt>

0000000000400dc0 <strtoul@plt>:
  400dc0:	ff 25 32 43 20 00    	jmpq   *0x204332(%rip)        # 6050f8 <strtoul@GLIBC_2.2.5>
  400dc6:	68 1c 00 00 00       	pushq  $0x1c
  400dcb:	e9 20 fe ff ff       	jmpq   400bf0 <.plt>

0000000000400dd0 <gethostname@plt>:
  400dd0:	ff 25 2a 43 20 00    	jmpq   *0x20432a(%rip)        # 605100 <gethostname@GLIBC_2.2.5>
  400dd6:	68 1d 00 00 00       	pushq  $0x1d
  400ddb:	e9 10 fe ff ff       	jmpq   400bf0 <.plt>

0000000000400de0 <sprintf@plt>:
  400de0:	ff 25 22 43 20 00    	jmpq   *0x204322(%rip)        # 605108 <sprintf@GLIBC_2.2.5>
  400de6:	68 1e 00 00 00       	pushq  $0x1e
  400deb:	e9 00 fe ff ff       	jmpq   400bf0 <.plt>

0000000000400df0 <exit@plt>:
  400df0:	ff 25 1a 43 20 00    	jmpq   *0x20431a(%rip)        # 605110 <exit@GLIBC_2.2.5>
  400df6:	68 1f 00 00 00       	pushq  $0x1f
  400dfb:	e9 f0 fd ff ff       	jmpq   400bf0 <.plt>

0000000000400e00 <connect@plt>:
  400e00:	ff 25 12 43 20 00    	jmpq   *0x204312(%rip)        # 605118 <connect@GLIBC_2.2.5>
  400e06:	68 20 00 00 00       	pushq  $0x20
  400e0b:	e9 e0 fd ff ff       	jmpq   400bf0 <.plt>

0000000000400e10 <socket@plt>:
  400e10:	ff 25 0a 43 20 00    	jmpq   *0x20430a(%rip)        # 605120 <socket@GLIBC_2.2.5>
  400e16:	68 21 00 00 00       	pushq  $0x21
  400e1b:	e9 d0 fd ff ff       	jmpq   400bf0 <.plt>

Disassembly of section .text:

0000000000400e20 <_start>:
  400e20:	31 ed                	xor    %ebp,%ebp
  400e22:	49 89 d1             	mov    %rdx,%r9
  400e25:	5e                   	pop    %rsi
  400e26:	48 89 e2             	mov    %rsp,%rdx
  400e29:	48 83 e4 f0          	and    $0xfffffffffffffff0,%rsp
  400e2d:	50                   	push   %rax
  400e2e:	54                   	push   %rsp
  400e2f:	49 c7 c0 40 2d 40 00 	mov    $0x402d40,%r8
  400e36:	48 c7 c1 d0 2c 40 00 	mov    $0x402cd0,%rcx
  400e3d:	48 c7 c7 e0 10 40 00 	mov    $0x4010e0,%rdi
  400e44:	e8 87 fe ff ff       	callq  400cd0 <__libc_start_main@plt>
  400e49:	f4                   	hlt    
  400e4a:	66 0f 1f 44 00 00    	nopw   0x0(%rax,%rax,1)

0000000000400e50 <deregister_tm_clones>:
  400e50:	b8 b7 54 60 00       	mov    $0x6054b7,%eax
  400e55:	55                   	push   %rbp
  400e56:	48 2d b0 54 60 00    	sub    $0x6054b0,%rax
  400e5c:	48 83 f8 0e          	cmp    $0xe,%rax
  400e60:	48 89 e5             	mov    %rsp,%rbp
  400e63:	77 02                	ja     400e67 <deregister_tm_clones+0x17>
  400e65:	5d                   	pop    %rbp
  400e66:	c3                   	retq   
  400e67:	b8 00 00 00 00       	mov    $0x0,%eax
  400e6c:	48 85 c0             	test   %rax,%rax
  400e6f:	74 f4                	je     400e65 <deregister_tm_clones+0x15>
  400e71:	5d                   	pop    %rbp
  400e72:	bf b0 54 60 00       	mov    $0x6054b0,%edi
  400e77:	ff e0                	jmpq   *%rax
  400e79:	0f 1f 80 00 00 00 00 	nopl   0x0(%rax)

0000000000400e80 <register_tm_clones>:
  400e80:	b8 b0 54 60 00       	mov    $0x6054b0,%eax
  400e85:	55                   	push   %rbp
  400e86:	48 2d b0 54 60 00    	sub    $0x6054b0,%rax
  400e8c:	48 c1 f8 03          	sar    $0x3,%rax
  400e90:	48 89 e5             	mov    %rsp,%rbp
  400e93:	48 89 c2             	mov    %rax,%rdx
  400e96:	48 c1 ea 3f          	shr    $0x3f,%rdx
  400e9a:	48 01 d0             	add    %rdx,%rax
  400e9d:	48 d1 f8             	sar    %rax
  400ea0:	75 02                	jne    400ea4 <register_tm_clones+0x24>
  400ea2:	5d                   	pop    %rbp
  400ea3:	c3                   	retq   
  400ea4:	ba 00 00 00 00       	mov    $0x0,%edx
  400ea9:	48 85 d2             	test   %rdx,%rdx
  400eac:	74 f4                	je     400ea2 <register_tm_clones+0x22>
  400eae:	5d                   	pop    %rbp
  400eaf:	48 89 c6             	mov    %rax,%rsi
  400eb2:	bf b0 54 60 00       	mov    $0x6054b0,%edi
  400eb7:	ff e2                	jmpq   *%rdx
  400eb9:	0f 1f 80 00 00 00 00 	nopl   0x0(%rax)

0000000000400ec0 <__do_global_dtors_aux>:
  400ec0:	80 3d 11 46 20 00 00 	cmpb   $0x0,0x204611(%rip)        # 6054d8 <completed.6355>
  400ec7:	75 11                	jne    400eda <__do_global_dtors_aux+0x1a>
  400ec9:	55                   	push   %rbp
  400eca:	48 89 e5             	mov    %rsp,%rbp
  400ecd:	e8 7e ff ff ff       	callq  400e50 <deregister_tm_clones>
  400ed2:	5d                   	pop    %rbp
  400ed3:	c6 05 fe 45 20 00 01 	movb   $0x1,0x2045fe(%rip)        # 6054d8 <completed.6355>
  400eda:	f3 c3                	repz retq 
  400edc:	0f 1f 40 00          	nopl   0x0(%rax)

0000000000400ee0 <frame_dummy>:
  400ee0:	48 83 3d 38 3f 20 00 	cmpq   $0x0,0x203f38(%rip)        # 604e20 <__JCR_END__>
  400ee7:	00 
  400ee8:	74 1e                	je     400f08 <frame_dummy+0x28>
  400eea:	b8 00 00 00 00       	mov    $0x0,%eax
  400eef:	48 85 c0             	test   %rax,%rax
  400ef2:	74 14                	je     400f08 <frame_dummy+0x28>
  400ef4:	55                   	push   %rbp
  400ef5:	bf 20 4e 60 00       	mov    $0x604e20,%edi
  400efa:	48 89 e5             	mov    %rsp,%rbp
  400efd:	ff d0                	callq  *%rax
  400eff:	5d                   	pop    %rbp
  400f00:	e9 7b ff ff ff       	jmpq   400e80 <register_tm_clones>
  400f05:	0f 1f 00             	nopl   (%rax)
  400f08:	e9 73 ff ff ff       	jmpq   400e80 <register_tm_clones>
  400f0d:	0f 1f 00             	nopl   (%rax)

0000000000400f10 <usage>:
  400f10:	48 83 ec 08          	sub    $0x8,%rsp
  400f14:	48 89 fe             	mov    %rdi,%rsi
  400f17:	83 3d ea 45 20 00 00 	cmpl   $0x0,0x2045ea(%rip)        # 605508 <is_checker>
  400f1e:	74 39                	je     400f59 <usage+0x49>
  400f20:	bf 60 2d 40 00       	mov    $0x402d60,%edi
  400f25:	b8 00 00 00 00       	mov    $0x0,%eax
  400f2a:	e8 51 fd ff ff       	callq  400c80 <printf@plt>
  400f2f:	bf 98 2d 40 00       	mov    $0x402d98,%edi
  400f34:	e8 17 fd ff ff       	callq  400c50 <puts@plt>
  400f39:	bf 10 2f 40 00       	mov    $0x402f10,%edi
  400f3e:	e8 0d fd ff ff       	callq  400c50 <puts@plt>
  400f43:	bf c0 2d 40 00       	mov    $0x402dc0,%edi
  400f48:	e8 03 fd ff ff       	callq  400c50 <puts@plt>
  400f4d:	bf 2a 2f 40 00       	mov    $0x402f2a,%edi
  400f52:	e8 f9 fc ff ff       	callq  400c50 <puts@plt>
  400f57:	eb 2d                	jmp    400f86 <usage+0x76>
  400f59:	bf 46 2f 40 00       	mov    $0x402f46,%edi
  400f5e:	b8 00 00 00 00       	mov    $0x0,%eax
  400f63:	e8 18 fd ff ff       	callq  400c80 <printf@plt>
  400f68:	bf e8 2d 40 00       	mov    $0x402de8,%edi
  400f6d:	e8 de fc ff ff       	callq  400c50 <puts@plt>
  400f72:	bf 10 2e 40 00       	mov    $0x402e10,%edi
  400f77:	e8 d4 fc ff ff       	callq  400c50 <puts@plt>
  400f7c:	bf 64 2f 40 00       	mov    $0x402f64,%edi
  400f81:	e8 ca fc ff ff       	callq  400c50 <puts@plt>
  400f86:	bf 00 00 00 00       	mov    $0x0,%edi
  400f8b:	e8 60 fe ff ff       	callq  400df0 <exit@plt>

0000000000400f90 <initialize_target>:
  400f90:	55                   	push   %rbp
  400f91:	53                   	push   %rbx
  400f92:	48 81 ec 08 21 00 00 	sub    $0x2108,%rsp
  400f99:	89 f5                	mov    %esi,%ebp
  400f9b:	89 3d 57 45 20 00    	mov    %edi,0x204557(%rip)        # 6054f8 <check_level>
  400fa1:	8b 3d c1 41 20 00    	mov    0x2041c1(%rip),%edi        # 605168 <target_id>
  400fa7:	e8 f7 1c 00 00       	callq  402ca3 <gencookie>
  400fac:	89 05 52 45 20 00    	mov    %eax,0x204552(%rip)        # 605504 <cookie>
  400fb2:	89 c7                	mov    %eax,%edi
  400fb4:	e8 ea 1c 00 00       	callq  402ca3 <gencookie>
  400fb9:	89 05 41 45 20 00    	mov    %eax,0x204541(%rip)        # 605500 <authkey>
  400fbf:	8b 05 a3 41 20 00    	mov    0x2041a3(%rip),%eax        # 605168 <target_id>
  400fc5:	8d 78 01             	lea    0x1(%rax),%edi
  400fc8:	e8 53 fc ff ff       	callq  400c20 <srandom@plt>
  400fcd:	e8 7e fd ff ff       	callq  400d50 <random@plt>
  400fd2:	89 c7                	mov    %eax,%edi
  400fd4:	e8 ca 02 00 00       	callq  4012a3 <scramble>
  400fd9:	89 c3                	mov    %eax,%ebx
  400fdb:	85 ed                	test   %ebp,%ebp
  400fdd:	74 18                	je     400ff7 <initialize_target+0x67>
  400fdf:	bf 00 00 00 00       	mov    $0x0,%edi
  400fe4:	e8 57 fd ff ff       	callq  400d40 <time@plt>
  400fe9:	89 c7                	mov    %eax,%edi
  400feb:	e8 30 fc ff ff       	callq  400c20 <srandom@plt>
  400ff0:	e8 5b fd ff ff       	callq  400d50 <random@plt>
  400ff5:	eb 05                	jmp    400ffc <initialize_target+0x6c>
  400ff7:	b8 00 00 00 00       	mov    $0x0,%eax
  400ffc:	01 c3                	add    %eax,%ebx
  400ffe:	0f b7 db             	movzwl %bx,%ebx
  401001:	8d 04 dd 00 01 00 00 	lea    0x100(,%rbx,8),%eax
  401008:	89 c0                	mov    %eax,%eax
  40100a:	48 89 05 8f 44 20 00 	mov    %rax,0x20448f(%rip)        # 6054a0 <buf_offset>
  401011:	c6 05 10 51 20 00 72 	movb   $0x72,0x205110(%rip)        # 606128 <target_prefix>
  401018:	83 3d 89 44 20 00 00 	cmpl   $0x0,0x204489(%rip)        # 6054a8 <notify>
  40101f:	0f 84 b1 00 00 00    	je     4010d6 <initialize_target+0x146>
  401025:	83 3d dc 44 20 00 00 	cmpl   $0x0,0x2044dc(%rip)        # 605508 <is_checker>
  40102c:	0f 85 a4 00 00 00    	jne    4010d6 <initialize_target+0x146>
  401032:	be 00 01 00 00       	mov    $0x100,%esi
  401037:	48 89 e7             	mov    %rsp,%rdi
  40103a:	e8 91 fd ff ff       	callq  400dd0 <gethostname@plt>
  40103f:	85 c0                	test   %eax,%eax
  401041:	74 25                	je     401068 <initialize_target+0xd8>
  401043:	bf 40 2e 40 00       	mov    $0x402e40,%edi
  401048:	e8 03 fc ff ff       	callq  400c50 <puts@plt>
  40104d:	bf 08 00 00 00       	mov    $0x8,%edi
  401052:	e8 99 fd ff ff       	callq  400df0 <exit@plt>
  401057:	48 89 e6             	mov    %rsp,%rsi
  40105a:	e8 a1 fb ff ff       	callq  400c00 <strcasecmp@plt>
  40105f:	85 c0                	test   %eax,%eax
  401061:	74 21                	je     401084 <initialize_target+0xf4>
  401063:	83 c3 01             	add    $0x1,%ebx
  401066:	eb 05                	jmp    40106d <initialize_target+0xdd>
  401068:	bb 00 00 00 00       	mov    $0x0,%ebx
  40106d:	48 63 c3             	movslq %ebx,%rax
  401070:	48 8b 3c c5 80 51 60 	mov    0x605180(,%rax,8),%rdi
  401077:	00 
  401078:	48 85 ff             	test   %rdi,%rdi
  40107b:	75 da                	jne    401057 <initialize_target+0xc7>
  40107d:	b8 00 00 00 00       	mov    $0x0,%eax
  401082:	eb 05                	jmp    401089 <initialize_target+0xf9>
  401084:	b8 01 00 00 00       	mov    $0x1,%eax
  401089:	85 c0                	test   %eax,%eax
  40108b:	75 17                	jne    4010a4 <initialize_target+0x114>
  40108d:	48 89 e6             	mov    %rsp,%rsi
  401090:	bf 78 2e 40 00       	mov    $0x402e78,%edi
  401095:	e8 e6 fb ff ff       	callq  400c80 <printf@plt>
  40109a:	bf 08 00 00 00       	mov    $0x8,%edi
  40109f:	e8 4c fd ff ff       	callq  400df0 <exit@plt>
  4010a4:	48 8d bc 24 00 01 00 	lea    0x100(%rsp),%rdi
  4010ab:	00 
  4010ac:	e8 89 19 00 00       	callq  402a3a <init_driver>
  4010b1:	85 c0                	test   %eax,%eax
  4010b3:	79 21                	jns    4010d6 <initialize_target+0x146>
  4010b5:	48 8d b4 24 00 01 00 	lea    0x100(%rsp),%rsi
  4010bc:	00 
  4010bd:	bf b8 2e 40 00       	mov    $0x402eb8,%edi
  4010c2:	b8 00 00 00 00       	mov    $0x0,%eax
  4010c7:	e8 b4 fb ff ff       	callq  400c80 <printf@plt>
  4010cc:	bf 08 00 00 00       	mov    $0x8,%edi
  4010d1:	e8 1a fd ff ff       	callq  400df0 <exit@plt>
  4010d6:	48 81 c4 08 21 00 00 	add    $0x2108,%rsp
  4010dd:	5b                   	pop    %rbx
  4010de:	5d                   	pop    %rbp
  4010df:	c3                   	retq   

00000000004010e0 <main>:
  4010e0:	41 56                	push   %r14
  4010e2:	41 55                	push   %r13
  4010e4:	41 54                	push   %r12
  4010e6:	55                   	push   %rbp
  4010e7:	53                   	push   %rbx
  4010e8:	41 89 fc             	mov    %edi,%r12d
  4010eb:	48 89 f3             	mov    %rsi,%rbx
  4010ee:	be 61 1e 40 00       	mov    $0x401e61,%esi
  4010f3:	bf 0b 00 00 00       	mov    $0xb,%edi
  4010f8:	e8 e3 fb ff ff       	callq  400ce0 <signal@plt>
  4010fd:	be 13 1e 40 00       	mov    $0x401e13,%esi
  401102:	bf 07 00 00 00       	mov    $0x7,%edi
  401107:	e8 d4 fb ff ff       	callq  400ce0 <signal@plt>
  40110c:	be af 1e 40 00       	mov    $0x401eaf,%esi
  401111:	bf 04 00 00 00       	mov    $0x4,%edi
  401116:	e8 c5 fb ff ff       	callq  400ce0 <signal@plt>
  40111b:	83 3d e6 43 20 00 00 	cmpl   $0x0,0x2043e6(%rip)        # 605508 <is_checker>
  401122:	74 20                	je     401144 <main+0x64>
  401124:	be fd 1e 40 00       	mov    $0x401efd,%esi
  401129:	bf 0e 00 00 00       	mov    $0xe,%edi
  40112e:	e8 ad fb ff ff       	callq  400ce0 <signal@plt>
  401133:	bf 05 00 00 00       	mov    $0x5,%edi
  401138:	e8 63 fb ff ff       	callq  400ca0 <alarm@plt>
  40113d:	bd 82 2f 40 00       	mov    $0x402f82,%ebp
  401142:	eb 05                	jmp    401149 <main+0x69>
  401144:	bd 7d 2f 40 00       	mov    $0x402f7d,%ebp
  401149:	48 8b 05 70 43 20 00 	mov    0x204370(%rip),%rax        # 6054c0 <stdin@@GLIBC_2.2.5>
  401150:	48 89 05 99 43 20 00 	mov    %rax,0x204399(%rip)        # 6054f0 <infile>
  401157:	41 bd 00 00 00 00    	mov    $0x0,%r13d
  40115d:	41 be 00 00 00 00    	mov    $0x0,%r14d
  401163:	e9 b9 00 00 00       	jmpq   401221 <main+0x141>
  401168:	83 e8 61             	sub    $0x61,%eax
  40116b:	3c 10                	cmp    $0x10,%al
  40116d:	0f 87 93 00 00 00    	ja     401206 <main+0x126>
  401173:	0f b6 c0             	movzbl %al,%eax
  401176:	ff 24 c5 c8 2f 40 00 	jmpq   *0x402fc8(,%rax,8)
  40117d:	48 8b 3b             	mov    (%rbx),%rdi
  401180:	e8 8b fd ff ff       	callq  400f10 <usage>
  401185:	be 35 33 40 00       	mov    $0x403335,%esi
  40118a:	48 8b 3d 37 43 20 00 	mov    0x204337(%rip),%rdi        # 6054c8 <optarg@@GLIBC_2.2.5>
  401191:	e8 0a fc ff ff       	callq  400da0 <fopen@plt>
  401196:	48 89 05 53 43 20 00 	mov    %rax,0x204353(%rip)        # 6054f0 <infile>
  40119d:	48 85 c0             	test   %rax,%rax
  4011a0:	75 7f                	jne    401221 <main+0x141>
  4011a2:	48 8b 15 1f 43 20 00 	mov    0x20431f(%rip),%rdx        # 6054c8 <optarg@@GLIBC_2.2.5>
  4011a9:	be 8a 2f 40 00       	mov    $0x402f8a,%esi
  4011ae:	48 8b 3d 1b 43 20 00 	mov    0x20431b(%rip),%rdi        # 6054d0 <stderr@@GLIBC_2.2.5>
  4011b5:	e8 46 fb ff ff       	callq  400d00 <fprintf@plt>
  4011ba:	b8 01 00 00 00       	mov    $0x1,%eax
  4011bf:	e9 d6 00 00 00       	jmpq   40129a <main+0x1ba>
  4011c4:	ba 10 00 00 00       	mov    $0x10,%edx
  4011c9:	be 00 00 00 00       	mov    $0x0,%esi
  4011ce:	48 8b 3d f3 42 20 00 	mov    0x2042f3(%rip),%rdi        # 6054c8 <optarg@@GLIBC_2.2.5>
  4011d5:	e8 e6 fb ff ff       	callq  400dc0 <strtoul@plt>
  4011da:	41 89 c6             	mov    %eax,%r14d
  4011dd:	eb 42                	jmp    401221 <main+0x141>
  4011df:	ba 0a 00 00 00       	mov    $0xa,%edx
  4011e4:	be 00 00 00 00       	mov    $0x0,%esi
  4011e9:	48 8b 3d d8 42 20 00 	mov    0x2042d8(%rip),%rdi        # 6054c8 <optarg@@GLIBC_2.2.5>
  4011f0:	e8 2b fb ff ff       	callq  400d20 <strtol@plt>
  4011f5:	41 89 c5             	mov    %eax,%r13d
  4011f8:	eb 27                	jmp    401221 <main+0x141>
  4011fa:	c7 05 a4 42 20 00 00 	movl   $0x0,0x2042a4(%rip)        # 6054a8 <notify>
  401201:	00 00 00 
  401204:	eb 1b                	jmp    401221 <main+0x141>
  401206:	40 0f be f6          	movsbl %sil,%esi
  40120a:	bf a7 2f 40 00       	mov    $0x402fa7,%edi
  40120f:	b8 00 00 00 00       	mov    $0x0,%eax
  401214:	e8 67 fa ff ff       	callq  400c80 <printf@plt>
  401219:	48 8b 3b             	mov    (%rbx),%rdi
  40121c:	e8 ef fc ff ff       	callq  400f10 <usage>
  401221:	48 89 ea             	mov    %rbp,%rdx
  401224:	48 89 de             	mov    %rbx,%rsi
  401227:	44 89 e7             	mov    %r12d,%edi
  40122a:	e8 81 fb ff ff       	callq  400db0 <getopt@plt>
  40122f:	89 c6                	mov    %eax,%esi
  401231:	3c ff                	cmp    $0xff,%al
  401233:	0f 85 2f ff ff ff    	jne    401168 <main+0x88>
  401239:	be 01 00 00 00       	mov    $0x1,%esi
  40123e:	44 89 ef             	mov    %r13d,%edi
  401241:	e8 4a fd ff ff       	callq  400f90 <initialize_target>
  401246:	83 3d bb 42 20 00 00 	cmpl   $0x0,0x2042bb(%rip)        # 605508 <is_checker>
  40124d:	74 25                	je     401274 <main+0x194>
  40124f:	44 3b 35 aa 42 20 00 	cmp    0x2042aa(%rip),%r14d        # 605500 <authkey>
  401256:	74 1c                	je     401274 <main+0x194>
  401258:	44 89 f6             	mov    %r14d,%esi
  40125b:	bf e0 2e 40 00       	mov    $0x402ee0,%edi
  401260:	b8 00 00 00 00       	mov    $0x0,%eax
  401265:	e8 16 fa ff ff       	callq  400c80 <printf@plt>
  40126a:	b8 00 00 00 00       	mov    $0x0,%eax
  40126f:	e8 a7 08 00 00       	callq  401b1b <check_fail>
  401274:	8b 35 8a 42 20 00    	mov    0x20428a(%rip),%esi        # 605504 <cookie>
  40127a:	bf ba 2f 40 00       	mov    $0x402fba,%edi
  40127f:	b8 00 00 00 00       	mov    $0x0,%eax
  401284:	e8 f7 f9 ff ff       	callq  400c80 <printf@plt>
  401289:	48 8b 3d 10 42 20 00 	mov    0x204210(%rip),%rdi        # 6054a0 <buf_offset>
  401290:	e8 b6 0c 00 00       	callq  401f4b <launch>
  401295:	b8 00 00 00 00       	mov    $0x0,%eax
  40129a:	5b                   	pop    %rbx
  40129b:	5d                   	pop    %rbp
  40129c:	41 5c                	pop    %r12
  40129e:	41 5d                	pop    %r13
  4012a0:	41 5e                	pop    %r14
  4012a2:	c3                   	retq   

00000000004012a3 <scramble>:
  4012a3:	b8 00 00 00 00       	mov    $0x0,%eax
  4012a8:	eb 11                	jmp    4012bb <scramble+0x18>
  4012aa:	69 c8 d4 2f 00 00    	imul   $0x2fd4,%eax,%ecx
  4012b0:	01 f9                	add    %edi,%ecx
  4012b2:	89 c2                	mov    %eax,%edx
  4012b4:	89 4c 94 d0          	mov    %ecx,-0x30(%rsp,%rdx,4)
  4012b8:	83 c0 01             	add    $0x1,%eax
  4012bb:	83 f8 09             	cmp    $0x9,%eax
  4012be:	76 ea                	jbe    4012aa <scramble+0x7>
  4012c0:	8b 44 24 d0          	mov    -0x30(%rsp),%eax
  4012c4:	69 c0 f6 13 00 00    	imul   $0x13f6,%eax,%eax
  4012ca:	89 44 24 d0          	mov    %eax,-0x30(%rsp)
  4012ce:	8b 44 24 d0          	mov    -0x30(%rsp),%eax
  4012d2:	69 c0 b5 d3 00 00    	imul   $0xd3b5,%eax,%eax
  4012d8:	89 44 24 d0          	mov    %eax,-0x30(%rsp)
  4012dc:	8b 44 24 d8          	mov    -0x28(%rsp),%eax
  4012e0:	69 c0 b5 e2 00 00    	imul   $0xe2b5,%eax,%eax
  4012e6:	89 44 24 d8          	mov    %eax,-0x28(%rsp)
  4012ea:	8b 44 24 d0          	mov    -0x30(%rsp),%eax
  4012ee:	69 c0 d1 ba 00 00    	imul   $0xbad1,%eax,%eax
  4012f4:	89 44 24 d0          	mov    %eax,-0x30(%rsp)
  4012f8:	8b 44 24 e8          	mov    -0x18(%rsp),%eax
  4012fc:	69 c0 3f 54 00 00    	imul   $0x543f,%eax,%eax
  401302:	89 44 24 e8          	mov    %eax,-0x18(%rsp)
  401306:	8b 44 24 e8          	mov    -0x18(%rsp),%eax
  40130a:	69 c0 2e 53 00 00    	imul   $0x532e,%eax,%eax
  401310:	89 44 24 e8          	mov    %eax,-0x18(%rsp)
  401314:	8b 44 24 dc          	mov    -0x24(%rsp),%eax
  401318:	69 c0 bd 28 00 00    	imul   $0x28bd,%eax,%eax
  40131e:	89 44 24 dc          	mov    %eax,-0x24(%rsp)
  401322:	8b 44 24 d4          	mov    -0x2c(%rsp),%eax
  401326:	69 c0 20 96 00 00    	imul   $0x9620,%eax,%eax
  40132c:	89 44 24 d4          	mov    %eax,-0x2c(%rsp)
  401330:	8b 44 24 f0          	mov    -0x10(%rsp),%eax
  401334:	69 c0 67 90 00 00    	imul   $0x9067,%eax,%eax
  40133a:	89 44 24 f0          	mov    %eax,-0x10(%rsp)
  40133e:	8b 44 24 d4          	mov    -0x2c(%rsp),%eax
  401342:	69 c0 3c c1 00 00    	imul   $0xc13c,%eax,%eax
  401348:	89 44 24 d4          	mov    %eax,-0x2c(%rsp)
  40134c:	8b 44 24 ec          	mov    -0x14(%rsp),%eax
  401350:	69 c0 dc 0a 00 00    	imul   $0xadc,%eax,%eax
  401356:	89 44 24 ec          	mov    %eax,-0x14(%rsp)
  40135a:	8b 44 24 e4          	mov    -0x1c(%rsp),%eax
  40135e:	69 c0 97 65 00 00    	imul   $0x6597,%eax,%eax
  401364:	89 44 24 e4          	mov    %eax,-0x1c(%rsp)
  401368:	8b 44 24 d0          	mov    -0x30(%rsp),%eax
  40136c:	69 c0 41 3e 00 00    	imul   $0x3e41,%eax,%eax
  401372:	89 44 24 d0          	mov    %eax,-0x30(%rsp)
  401376:	8b 44 24 d4          	mov    -0x2c(%rsp),%eax
  40137a:	69 c0 01 f1 00 00    	imul   $0xf101,%eax,%eax
  401380:	89 44 24 d4          	mov    %eax,-0x2c(%rsp)
  401384:	8b 44 24 f0          	mov    -0x10(%rsp),%eax
  401388:	69 c0 e7 44 00 00    	imul   $0x44e7,%eax,%eax
  40138e:	89 44 24 f0          	mov    %eax,-0x10(%rsp)
  401392:	8b 44 24 ec          	mov    -0x14(%rsp),%eax
  401396:	69 c0 c7 1a 00 00    	imul   $0x1ac7,%eax,%eax
  40139c:	89 44 24 ec          	mov    %eax,-0x14(%rsp)
  4013a0:	8b 44 24 e4          	mov    -0x1c(%rsp),%eax
  4013a4:	69 c0 88 dc 00 00    	imul   $0xdc88,%eax,%eax
  4013aa:	89 44 24 e4          	mov    %eax,-0x1c(%rsp)
  4013ae:	8b 44 24 e8          	mov    -0x18(%rsp),%eax
  4013b2:	69 c0 93 21 00 00    	imul   $0x2193,%eax,%eax
  4013b8:	89 44 24 e8          	mov    %eax,-0x18(%rsp)
  4013bc:	8b 44 24 d0          	mov    -0x30(%rsp),%eax
  4013c0:	69 c0 ab df 00 00    	imul   $0xdfab,%eax,%eax
  4013c6:	89 44 24 d0          	mov    %eax,-0x30(%rsp)
  4013ca:	8b 44 24 e8          	mov    -0x18(%rsp),%eax
  4013ce:	69 c0 2e 64 00 00    	imul   $0x642e,%eax,%eax
  4013d4:	89 44 24 e8          	mov    %eax,-0x18(%rsp)
  4013d8:	8b 44 24 d0          	mov    -0x30(%rsp),%eax
  4013dc:	69 c0 62 fc 00 00    	imul   $0xfc62,%eax,%eax
  4013e2:	89 44 24 d0          	mov    %eax,-0x30(%rsp)
  4013e6:	8b 44 24 d0          	mov    -0x30(%rsp),%eax
  4013ea:	69 c0 d0 19 00 00    	imul   $0x19d0,%eax,%eax
  4013f0:	89 44 24 d0          	mov    %eax,-0x30(%rsp)
  4013f4:	8b 44 24 d8          	mov    -0x28(%rsp),%eax
  4013f8:	69 c0 d6 ec 00 00    	imul   $0xecd6,%eax,%eax
  4013fe:	89 44 24 d8          	mov    %eax,-0x28(%rsp)
  401402:	8b 44 24 ec          	mov    -0x14(%rsp),%eax
  401406:	69 c0 a3 3f 00 00    	imul   $0x3fa3,%eax,%eax
  40140c:	89 44 24 ec          	mov    %eax,-0x14(%rsp)
  401410:	8b 44 24 e4          	mov    -0x1c(%rsp),%eax
  401414:	69 c0 f4 e7 00 00    	imul   $0xe7f4,%eax,%eax
  40141a:	89 44 24 e4          	mov    %eax,-0x1c(%rsp)
  40141e:	8b 44 24 f4          	mov    -0xc(%rsp),%eax
  401422:	69 c0 9d 7c 00 00    	imul   $0x7c9d,%eax,%eax
  401428:	89 44 24 f4          	mov    %eax,-0xc(%rsp)
  40142c:	8b 44 24 f0          	mov    -0x10(%rsp),%eax
  401430:	69 c0 24 cc 00 00    	imul   $0xcc24,%eax,%eax
  401436:	89 44 24 f0          	mov    %eax,-0x10(%rsp)
  40143a:	8b 44 24 e8          	mov    -0x18(%rsp),%eax
  40143e:	69 c0 a8 97 00 00    	imul   $0x97a8,%eax,%eax
  401444:	89 44 24 e8          	mov    %eax,-0x18(%rsp)
  401448:	8b 44 24 dc          	mov    -0x24(%rsp),%eax
  40144c:	69 c0 50 c9 00 00    	imul   $0xc950,%eax,%eax
  401452:	89 44 24 dc          	mov    %eax,-0x24(%rsp)
  401456:	8b 44 24 ec          	mov    -0x14(%rsp),%eax
  40145a:	69 c0 59 f5 00 00    	imul   $0xf559,%eax,%eax
  401460:	89 44 24 ec          	mov    %eax,-0x14(%rsp)
  401464:	8b 44 24 e8          	mov    -0x18(%rsp),%eax
  401468:	69 c0 b6 ef 00 00    	imul   $0xefb6,%eax,%eax
  40146e:	89 44 24 e8          	mov    %eax,-0x18(%rsp)
  401472:	8b 44 24 e0          	mov    -0x20(%rsp),%eax
  401476:	69 c0 14 67 00 00    	imul   $0x6714,%eax,%eax
  40147c:	89 44 24 e0          	mov    %eax,-0x20(%rsp)
  401480:	8b 44 24 e4          	mov    -0x1c(%rsp),%eax
  401484:	69 c0 9d fe 00 00    	imul   $0xfe9d,%eax,%eax
  40148a:	89 44 24 e4          	mov    %eax,-0x1c(%rsp)
  40148e:	8b 44 24 d8          	mov    -0x28(%rsp),%eax
  401492:	69 c0 7c 8b 00 00    	imul   $0x8b7c,%eax,%eax
  401498:	89 44 24 d8          	mov    %eax,-0x28(%rsp)
  40149c:	8b 44 24 d4          	mov    -0x2c(%rsp),%eax
  4014a0:	69 c0 0b 65 00 00    	imul   $0x650b,%eax,%eax
  4014a6:	89 44 24 d4          	mov    %eax,-0x2c(%rsp)
  4014aa:	8b 44 24 e8          	mov    -0x18(%rsp),%eax
  4014ae:	69 c0 32 12 00 00    	imul   $0x1232,%eax,%eax
  4014b4:	89 44 24 e8          	mov    %eax,-0x18(%rsp)
  4014b8:	8b 44 24 dc          	mov    -0x24(%rsp),%eax
  4014bc:	69 c0 07 a7 00 00    	imul   $0xa707,%eax,%eax
  4014c2:	89 44 24 dc          	mov    %eax,-0x24(%rsp)
  4014c6:	8b 44 24 d4          	mov    -0x2c(%rsp),%eax
  4014ca:	69 c0 8e 86 00 00    	imul   $0x868e,%eax,%eax
  4014d0:	89 44 24 d4          	mov    %eax,-0x2c(%rsp)
  4014d4:	8b 44 24 d4          	mov    -0x2c(%rsp),%eax
  4014d8:	69 c0 f3 db 00 00    	imul   $0xdbf3,%eax,%eax
  4014de:	89 44 24 d4          	mov    %eax,-0x2c(%rsp)
  4014e2:	8b 44 24 f0          	mov    -0x10(%rsp),%eax
  4014e6:	69 c0 1b 11 00 00    	imul   $0x111b,%eax,%eax
  4014ec:	89 44 24 f0          	mov    %eax,-0x10(%rsp)
  4014f0:	8b 44 24 d8          	mov    -0x28(%rsp),%eax
  4014f4:	69 c0 10 c7 00 00    	imul   $0xc710,%eax,%eax
  4014fa:	89 44 24 d8          	mov    %eax,-0x28(%rsp)
  4014fe:	8b 44 24 d4          	mov    -0x2c(%rsp),%eax
  401502:	69 c0 b9 b6 00 00    	imul   $0xb6b9,%eax,%eax
  401508:	89 44 24 d4          	mov    %eax,-0x2c(%rsp)
  40150c:	8b 44 24 dc          	mov    -0x24(%rsp),%eax
  401510:	69 c0 ec 6f 00 00    	imul   $0x6fec,%eax,%eax
  401516:	89 44 24 dc          	mov    %eax,-0x24(%rsp)
  40151a:	8b 44 24 f0          	mov    -0x10(%rsp),%eax
  40151e:	69 c0 9b 9d 00 00    	imul   $0x9d9b,%eax,%eax
  401524:	89 44 24 f0          	mov    %eax,-0x10(%rsp)
  401528:	8b 44 24 f0          	mov    -0x10(%rsp),%eax
  40152c:	69 c0 0b d7 00 00    	imul   $0xd70b,%eax,%eax
  401532:	89 44 24 f0          	mov    %eax,-0x10(%rsp)
  401536:	8b 44 24 dc          	mov    -0x24(%rsp),%eax
  40153a:	69 c0 74 47 00 00    	imul   $0x4774,%eax,%eax
  401540:	89 44 24 dc          	mov    %eax,-0x24(%rsp)
  401544:	8b 44 24 d8          	mov    -0x28(%rsp),%eax
  401548:	69 c0 14 a3 00 00    	imul   $0xa314,%eax,%eax
  40154e:	89 44 24 d8          	mov    %eax,-0x28(%rsp)
  401552:	8b 44 24 d0          	mov    -0x30(%rsp),%eax
  401556:	69 c0 ff 92 00 00    	imul   $0x92ff,%eax,%eax
  40155c:	89 44 24 d0          	mov    %eax,-0x30(%rsp)
  401560:	8b 44 24 d8          	mov    -0x28(%rsp),%eax
  401564:	69 c0 30 37 00 00    	imul   $0x3730,%eax,%eax
  40156a:	89 44 24 d8          	mov    %eax,-0x28(%rsp)
  40156e:	8b 44 24 ec          	mov    -0x14(%rsp),%eax
  401572:	69 c0 fa 7f 00 00    	imul   $0x7ffa,%eax,%eax
  401578:	89 44 24 ec          	mov    %eax,-0x14(%rsp)
  40157c:	8b 44 24 dc          	mov    -0x24(%rsp),%eax
  401580:	69 c0 27 0e 00 00    	imul   $0xe27,%eax,%eax
  401586:	89 44 24 dc          	mov    %eax,-0x24(%rsp)
  40158a:	8b 44 24 f0          	mov    -0x10(%rsp),%eax
  40158e:	69 c0 a9 fd 00 00    	imul   $0xfda9,%eax,%eax
  401594:	89 44 24 f0          	mov    %eax,-0x10(%rsp)
  401598:	8b 44 24 d4          	mov    -0x2c(%rsp),%eax
  40159c:	69 c0 30 be 00 00    	imul   $0xbe30,%eax,%eax
  4015a2:	89 44 24 d4          	mov    %eax,-0x2c(%rsp)
  4015a6:	8b 44 24 e4          	mov    -0x1c(%rsp),%eax
  4015aa:	69 c0 0c 49 00 00    	imul   $0x490c,%eax,%eax
  4015b0:	89 44 24 e4          	mov    %eax,-0x1c(%rsp)
  4015b4:	8b 44 24 d4          	mov    -0x2c(%rsp),%eax
  4015b8:	69 c0 68 4a 00 00    	imul   $0x4a68,%eax,%eax
  4015be:	89 44 24 d4          	mov    %eax,-0x2c(%rsp)
  4015c2:	8b 44 24 d4          	mov    -0x2c(%rsp),%eax
  4015c6:	69 c0 0b 5e 00 00    	imul   $0x5e0b,%eax,%eax
  4015cc:	89 44 24 d4          	mov    %eax,-0x2c(%rsp)
  4015d0:	8b 44 24 d8          	mov    -0x28(%rsp),%eax
  4015d4:	69 c0 df e7 00 00    	imul   $0xe7df,%eax,%eax
  4015da:	89 44 24 d8          	mov    %eax,-0x28(%rsp)
  4015de:	8b 44 24 dc          	mov    -0x24(%rsp),%eax
  4015e2:	69 c0 ae a4 00 00    	imul   $0xa4ae,%eax,%eax
  4015e8:	89 44 24 dc          	mov    %eax,-0x24(%rsp)
  4015ec:	8b 44 24 d4          	mov    -0x2c(%rsp),%eax
  4015f0:	69 c0 26 63 00 00    	imul   $0x6326,%eax,%eax
  4015f6:	89 44 24 d4          	mov    %eax,-0x2c(%rsp)
  4015fa:	8b 44 24 ec          	mov    -0x14(%rsp),%eax
  4015fe:	69 c0 07 91 00 00    	imul   $0x9107,%eax,%eax
  401604:	89 44 24 ec          	mov    %eax,-0x14(%rsp)
  401608:	8b 44 24 f4          	mov    -0xc(%rsp),%eax
  40160c:	69 c0 3d d5 00 00    	imul   $0xd53d,%eax,%eax
  401612:	89 44 24 f4          	mov    %eax,-0xc(%rsp)
  401616:	8b 44 24 ec          	mov    -0x14(%rsp),%eax
  40161a:	69 c0 f2 00 00 00    	imul   $0xf2,%eax,%eax
  401620:	89 44 24 ec          	mov    %eax,-0x14(%rsp)
  401624:	8b 44 24 f4          	mov    -0xc(%rsp),%eax
  401628:	69 c0 04 87 00 00    	imul   $0x8704,%eax,%eax
  40162e:	89 44 24 f4          	mov    %eax,-0xc(%rsp)
  401632:	8b 44 24 e0          	mov    -0x20(%rsp),%eax
  401636:	69 c0 03 1a 00 00    	imul   $0x1a03,%eax,%eax
  40163c:	89 44 24 e0          	mov    %eax,-0x20(%rsp)
  401640:	8b 44 24 d8          	mov    -0x28(%rsp),%eax
  401644:	69 c0 6d b2 00 00    	imul   $0xb26d,%eax,%eax
  40164a:	89 44 24 d8          	mov    %eax,-0x28(%rsp)
  40164e:	8b 44 24 f0          	mov    -0x10(%rsp),%eax
  401652:	69 c0 6f 5a 00 00    	imul   $0x5a6f,%eax,%eax
  401658:	89 44 24 f0          	mov    %eax,-0x10(%rsp)
  40165c:	8b 44 24 ec          	mov    -0x14(%rsp),%eax
  401660:	69 c0 2b 2c 00 00    	imul   $0x2c2b,%eax,%eax
  401666:	89 44 24 ec          	mov    %eax,-0x14(%rsp)
  40166a:	8b 44 24 e4          	mov    -0x1c(%rsp),%eax
  40166e:	69 c0 c3 75 00 00    	imul   $0x75c3,%eax,%eax
  401674:	89 44 24 e4          	mov    %eax,-0x1c(%rsp)
  401678:	8b 44 24 f4          	mov    -0xc(%rsp),%eax
  40167c:	69 c0 50 dc 00 00    	imul   $0xdc50,%eax,%eax
  401682:	89 44 24 f4          	mov    %eax,-0xc(%rsp)
  401686:	8b 44 24 dc          	mov    -0x24(%rsp),%eax
  40168a:	69 c0 7e 84 00 00    	imul   $0x847e,%eax,%eax
  401690:	89 44 24 dc          	mov    %eax,-0x24(%rsp)
  401694:	8b 44 24 e0          	mov    -0x20(%rsp),%eax
  401698:	69 c0 f6 18 00 00    	imul   $0x18f6,%eax,%eax
  40169e:	89 44 24 e0          	mov    %eax,-0x20(%rsp)
  4016a2:	8b 44 24 ec          	mov    -0x14(%rsp),%eax
  4016a6:	69 c0 32 38 00 00    	imul   $0x3832,%eax,%eax
  4016ac:	89 44 24 ec          	mov    %eax,-0x14(%rsp)
  4016b0:	8b 44 24 e8          	mov    -0x18(%rsp),%eax
  4016b4:	69 c0 4e f7 00 00    	imul   $0xf74e,%eax,%eax
  4016ba:	89 44 24 e8          	mov    %eax,-0x18(%rsp)
  4016be:	8b 44 24 e8          	mov    -0x18(%rsp),%eax
  4016c2:	69 c0 a0 58 00 00    	imul   $0x58a0,%eax,%eax
  4016c8:	89 44 24 e8          	mov    %eax,-0x18(%rsp)
  4016cc:	8b 44 24 e4          	mov    -0x1c(%rsp),%eax
  4016d0:	69 c0 29 1f 00 00    	imul   $0x1f29,%eax,%eax
  4016d6:	89 44 24 e4          	mov    %eax,-0x1c(%rsp)
  4016da:	8b 44 24 d0          	mov    -0x30(%rsp),%eax
  4016de:	69 c0 a5 94 00 00    	imul   $0x94a5,%eax,%eax
  4016e4:	89 44 24 d0          	mov    %eax,-0x30(%rsp)
  4016e8:	8b 44 24 dc          	mov    -0x24(%rsp),%eax
  4016ec:	69 c0 23 c2 00 00    	imul   $0xc223,%eax,%eax
  4016f2:	89 44 24 dc          	mov    %eax,-0x24(%rsp)
  4016f6:	8b 44 24 d4          	mov    -0x2c(%rsp),%eax
  4016fa:	69 c0 b7 6c 00 00    	imul   $0x6cb7,%eax,%eax
  401700:	89 44 24 d4          	mov    %eax,-0x2c(%rsp)
  401704:	8b 44 24 e4          	mov    -0x1c(%rsp),%eax
  401708:	69 c0 89 29 00 00    	imul   $0x2989,%eax,%eax
  40170e:	89 44 24 e4          	mov    %eax,-0x1c(%rsp)
  401712:	8b 44 24 f0          	mov    -0x10(%rsp),%eax
  401716:	69 c0 5b 07 00 00    	imul   $0x75b,%eax,%eax
  40171c:	89 44 24 f0          	mov    %eax,-0x10(%rsp)
  401720:	8b 44 24 f0          	mov    -0x10(%rsp),%eax
  401724:	69 c0 b9 20 00 00    	imul   $0x20b9,%eax,%eax
  40172a:	89 44 24 f0          	mov    %eax,-0x10(%rsp)
  40172e:	8b 44 24 e8          	mov    -0x18(%rsp),%eax
  401732:	69 c0 8b 9c 00 00    	imul   $0x9c8b,%eax,%eax
  401738:	89 44 24 e8          	mov    %eax,-0x18(%rsp)
  40173c:	8b 44 24 e8          	mov    -0x18(%rsp),%eax
  401740:	69 c0 e3 b9 00 00    	imul   $0xb9e3,%eax,%eax
  401746:	89 44 24 e8          	mov    %eax,-0x18(%rsp)
  40174a:	8b 44 24 e8          	mov    -0x18(%rsp),%eax
  40174e:	69 c0 3f 37 00 00    	imul   $0x373f,%eax,%eax
  401754:	89 44 24 e8          	mov    %eax,-0x18(%rsp)
  401758:	8b 44 24 d4          	mov    -0x2c(%rsp),%eax
  40175c:	69 c0 1d d1 00 00    	imul   $0xd11d,%eax,%eax
  401762:	89 44 24 d4          	mov    %eax,-0x2c(%rsp)
  401766:	8b 44 24 ec          	mov    -0x14(%rsp),%eax
  40176a:	69 c0 ed bc 00 00    	imul   $0xbced,%eax,%eax
  401770:	89 44 24 ec          	mov    %eax,-0x14(%rsp)
  401774:	8b 44 24 e4          	mov    -0x1c(%rsp),%eax
  401778:	69 c0 47 9e 00 00    	imul   $0x9e47,%eax,%eax
  40177e:	89 44 24 e4          	mov    %eax,-0x1c(%rsp)
  401782:	8b 44 24 e8          	mov    -0x18(%rsp),%eax
  401786:	69 c0 e8 ea 00 00    	imul   $0xeae8,%eax,%eax
  40178c:	89 44 24 e8          	mov    %eax,-0x18(%rsp)
  401790:	8b 44 24 e8          	mov    -0x18(%rsp),%eax
  401794:	69 c0 ff d1 00 00    	imul   $0xd1ff,%eax,%eax
  40179a:	89 44 24 e8          	mov    %eax,-0x18(%rsp)
  40179e:	8b 44 24 d8          	mov    -0x28(%rsp),%eax
  4017a2:	69 c0 0a f0 00 00    	imul   $0xf00a,%eax,%eax
  4017a8:	89 44 24 d8          	mov    %eax,-0x28(%rsp)
  4017ac:	8b 44 24 f0          	mov    -0x10(%rsp),%eax
  4017b0:	69 c0 2f 2d 00 00    	imul   $0x2d2f,%eax,%eax
  4017b6:	89 44 24 f0          	mov    %eax,-0x10(%rsp)
  4017ba:	8b 44 24 d0          	mov    -0x30(%rsp),%eax
  4017be:	69 c0 8e e5 00 00    	imul   $0xe58e,%eax,%eax
  4017c4:	89 44 24 d0          	mov    %eax,-0x30(%rsp)
  4017c8:	ba 00 00 00 00       	mov    $0x0,%edx
  4017cd:	b8 00 00 00 00       	mov    $0x0,%eax
  4017d2:	eb 0b                	jmp    4017df <scramble+0x53c>
  4017d4:	89 d1                	mov    %edx,%ecx
  4017d6:	8b 4c 8c d0          	mov    -0x30(%rsp,%rcx,4),%ecx
  4017da:	01 c8                	add    %ecx,%eax
  4017dc:	83 c2 01             	add    $0x1,%edx
  4017df:	83 fa 09             	cmp    $0x9,%edx
  4017e2:	76 f0                	jbe    4017d4 <scramble+0x531>
  4017e4:	f3 c3                	repz retq 

00000000004017e6 <getbuf>:
  4017e6:	48 83 ec 38          	sub    $0x38,%rsp
  4017ea:	48 89 e7             	mov    %rsp,%rdi
  4017ed:	e8 58 03 00 00       	callq  401b4a <Gets>
  4017f2:	b8 01 00 00 00       	mov    $0x1,%eax
  4017f7:	48 83 c4 38          	add    $0x38,%rsp
  4017fb:	c3                   	retq   

00000000004017fc <touch1>:
  4017fc:	48 83 ec 08          	sub    $0x8,%rsp
  401800:	c7 05 f2 3c 20 00 01 	movl   $0x1,0x203cf2(%rip)        # 6054fc <vlevel>
  401807:	00 00 00 
  40180a:	bf 87 31 40 00       	mov    $0x403187,%edi
  40180f:	e8 3c f4 ff ff       	callq  400c50 <puts@plt>
  401814:	bf 01 00 00 00       	mov    $0x1,%edi
  401819:	e8 1b 05 00 00       	callq  401d39 <validate>
  40181e:	bf 00 00 00 00       	mov    $0x0,%edi
  401823:	e8 c8 f5 ff ff       	callq  400df0 <exit@plt>

0000000000401828 <touch2>:
  401828:	48 83 ec 08          	sub    $0x8,%rsp
  40182c:	89 fe                	mov    %edi,%esi
  40182e:	c7 05 c4 3c 20 00 02 	movl   $0x2,0x203cc4(%rip)        # 6054fc <vlevel>
  401835:	00 00 00 
  401838:	3b 3d c6 3c 20 00    	cmp    0x203cc6(%rip),%edi        # 605504 <cookie>
  40183e:	75 1b                	jne    40185b <touch2+0x33>
  401840:	bf b0 31 40 00       	mov    $0x4031b0,%edi
  401845:	b8 00 00 00 00       	mov    $0x0,%eax
  40184a:	e8 31 f4 ff ff       	callq  400c80 <printf@plt>
  40184f:	bf 02 00 00 00       	mov    $0x2,%edi
  401854:	e8 e0 04 00 00       	callq  401d39 <validate>
  401859:	eb 19                	jmp    401874 <touch2+0x4c>
  40185b:	bf d8 31 40 00       	mov    $0x4031d8,%edi
  401860:	b8 00 00 00 00       	mov    $0x0,%eax
  401865:	e8 16 f4 ff ff       	callq  400c80 <printf@plt>
  40186a:	bf 02 00 00 00       	mov    $0x2,%edi
  40186f:	e8 77 05 00 00       	callq  401deb <fail>
  401874:	bf 00 00 00 00       	mov    $0x0,%edi
  401879:	e8 72 f5 ff ff       	callq  400df0 <exit@plt>

000000000040187e <hexmatch>:
  40187e:	41 54                	push   %r12
  401880:	55                   	push   %rbp
  401881:	53                   	push   %rbx
  401882:	48 83 ec 70          	sub    $0x70,%rsp
  401886:	41 89 fc             	mov    %edi,%r12d
  401889:	48 89 f5             	mov    %rsi,%rbp
  40188c:	e8 bf f4 ff ff       	callq  400d50 <random@plt>
  401891:	48 89 c1             	mov    %rax,%rcx
  401894:	48 ba 0b d7 a3 70 3d 	movabs $0xa3d70a3d70a3d70b,%rdx
  40189b:	0a d7 a3 
  40189e:	48 f7 ea             	imul   %rdx
  4018a1:	48 8d 04 0a          	lea    (%rdx,%rcx,1),%rax
  4018a5:	48 c1 f8 06          	sar    $0x6,%rax
  4018a9:	48 89 ce             	mov    %rcx,%rsi
  4018ac:	48 c1 fe 3f          	sar    $0x3f,%rsi
  4018b0:	48 29 f0             	sub    %rsi,%rax
  4018b3:	48 8d 04 80          	lea    (%rax,%rax,4),%rax
  4018b7:	48 8d 04 80          	lea    (%rax,%rax,4),%rax
  4018bb:	48 c1 e0 02          	shl    $0x2,%rax
  4018bf:	48 29 c1             	sub    %rax,%rcx
  4018c2:	48 8d 1c 0c          	lea    (%rsp,%rcx,1),%rbx
  4018c6:	44 89 e2             	mov    %r12d,%edx
  4018c9:	be a4 31 40 00       	mov    $0x4031a4,%esi
  4018ce:	48 89 df             	mov    %rbx,%rdi
  4018d1:	b8 00 00 00 00       	mov    $0x0,%eax
  4018d6:	e8 05 f5 ff ff       	callq  400de0 <sprintf@plt>
  4018db:	ba 09 00 00 00       	mov    $0x9,%edx
  4018e0:	48 89 de             	mov    %rbx,%rsi
  4018e3:	48 89 ef             	mov    %rbp,%rdi
  4018e6:	e8 45 f3 ff ff       	callq  400c30 <strncmp@plt>
  4018eb:	85 c0                	test   %eax,%eax
  4018ed:	0f 94 c0             	sete   %al
  4018f0:	0f b6 c0             	movzbl %al,%eax
  4018f3:	48 83 c4 70          	add    $0x70,%rsp
  4018f7:	5b                   	pop    %rbx
  4018f8:	5d                   	pop    %rbp
  4018f9:	41 5c                	pop    %r12
  4018fb:	c3                   	retq   

00000000004018fc <touch3>:
  4018fc:	53                   	push   %rbx
  4018fd:	48 89 fb             	mov    %rdi,%rbx
  401900:	c7 05 f2 3b 20 00 03 	movl   $0x3,0x203bf2(%rip)        # 6054fc <vlevel>
  401907:	00 00 00 
  40190a:	48 89 fe             	mov    %rdi,%rsi
  40190d:	8b 3d f1 3b 20 00    	mov    0x203bf1(%rip),%edi        # 605504 <cookie>
  401913:	e8 66 ff ff ff       	callq  40187e <hexmatch>
  401918:	85 c0                	test   %eax,%eax
  40191a:	74 1e                	je     40193a <touch3+0x3e>
  40191c:	48 89 de             	mov    %rbx,%rsi
  40191f:	bf 00 32 40 00       	mov    $0x403200,%edi
  401924:	b8 00 00 00 00       	mov    $0x0,%eax
  401929:	e8 52 f3 ff ff       	callq  400c80 <printf@plt>
  40192e:	bf 03 00 00 00       	mov    $0x3,%edi
  401933:	e8 01 04 00 00       	callq  401d39 <validate>
  401938:	eb 1c                	jmp    401956 <touch3+0x5a>
  40193a:	48 89 de             	mov    %rbx,%rsi
  40193d:	bf 28 32 40 00       	mov    $0x403228,%edi
  401942:	b8 00 00 00 00       	mov    $0x0,%eax
  401947:	e8 34 f3 ff ff       	callq  400c80 <printf@plt>
  40194c:	bf 03 00 00 00       	mov    $0x3,%edi
  401951:	e8 95 04 00 00       	callq  401deb <fail>
  401956:	bf 00 00 00 00       	mov    $0x0,%edi
  40195b:	e8 90 f4 ff ff       	callq  400df0 <exit@plt>

0000000000401960 <test>:
  401960:	48 83 ec 08          	sub    $0x8,%rsp
  401964:	b8 00 00 00 00       	mov    $0x0,%eax
  401969:	e8 78 fe ff ff       	callq  4017e6 <getbuf>
  40196e:	89 c6                	mov    %eax,%esi
  401970:	bf 50 32 40 00       	mov    $0x403250,%edi
  401975:	b8 00 00 00 00       	mov    $0x0,%eax
  40197a:	e8 01 f3 ff ff       	callq  400c80 <printf@plt>
  40197f:	48 83 c4 08          	add    $0x8,%rsp
  401983:	c3                   	retq   

0000000000401984 <start_farm>:
  401984:	b8 01 00 00 00       	mov    $0x1,%eax
  401989:	c3                   	retq   

000000000040198a <getval_298>:
  40198a:	b8 58 91 90 90       	mov    $0x90909158,%eax
  40198f:	c3                   	retq   

0000000000401990 <setval_181>:
  401990:	c7 07 58 90 90 c3    	movl   $0xc3909058,(%rdi)
  401996:	c3                   	retq   

0000000000401997 <addval_386>:
  401997:	8d 87 48 89 c7 c3    	lea    -0x3c3876b8(%rdi),%eax
  40199d:	c3                   	retq   

000000000040199e <setval_355>:
  40199e:	c7 07 87 48 90 c3    	movl   $0xc3904887,(%rdi)
  4019a4:	c3                   	retq   

00000000004019a5 <addval_208>:
  4019a5:	8d 87 48 89 c7 91    	lea    -0x6e3876b8(%rdi),%eax
  4019ab:	c3                   	retq   

00000000004019ac <setval_398>:
  4019ac:	c7 07 a7 58 90 90    	movl   $0x909058a7,(%rdi)
  4019b2:	c3                   	retq   

00000000004019b3 <setval_476>:
  4019b3:	c7 07 61 48 89 c7    	movl   $0xc7894861,(%rdi)
  4019b9:	c3                   	retq   

00000000004019ba <getval_256>:
  4019ba:	b8 48 8b c7 c3       	mov    $0xc3c78b48,%eax
  4019bf:	c3                   	retq   

00000000004019c0 <mid_farm>:
  4019c0:	b8 01 00 00 00       	mov    $0x1,%eax
  4019c5:	c3                   	retq   

00000000004019c6 <add_xy>:
  4019c6:	48 8d 04 37          	lea    (%rdi,%rsi,1),%rax
  4019ca:	c3                   	retq   

00000000004019cb <setval_340>:
  4019cb:	c7 07 c9 ce c3 56    	movl   $0x56c3cec9,(%rdi)
  4019d1:	c3                   	retq   

00000000004019d2 <getval_349>:
  4019d2:	b8 89 ce 94 c0       	mov    $0xc094ce89,%eax
  4019d7:	c3                   	retq   

00000000004019d8 <addval_114>:
  4019d8:	8d 87 48 89 e0 91    	lea    -0x6e1f76b8(%rdi),%eax
  4019de:	c3                   	retq   

00000000004019df <addval_477>:
  4019df:	8d 87 89 ce 60 d2    	lea    -0x2d9f3177(%rdi),%eax
  4019e5:	c3                   	retq   

00000000004019e6 <setval_177>:
  4019e6:	c7 07 89 d1 38 c9    	movl   $0xc938d189,(%rdi)
  4019ec:	c3                   	retq   

00000000004019ed <addval_357>:
  4019ed:	8d 87 b8 81 c2 90    	lea    -0x6f3d7e48(%rdi),%eax
  4019f3:	c3                   	retq   

00000000004019f4 <addval_104>:
  4019f4:	8d 87 a9 d1 90 c3    	lea    -0x3c6f2e57(%rdi),%eax
  4019fa:	c3                   	retq   

00000000004019fb <setval_485>:
  4019fb:	c7 07 48 89 e0 92    	movl   $0x92e08948,(%rdi)
  401a01:	c3                   	retq   

0000000000401a02 <setval_146>:
  401a02:	c7 07 48 88 e0 90    	movl   $0x90e08848,(%rdi)
  401a08:	c3                   	retq   

0000000000401a09 <addval_220>:
  401a09:	8d 87 89 ce 18 c0    	lea    -0x3fe73177(%rdi),%eax
  401a0f:	c3                   	retq   

0000000000401a10 <addval_200>:
  401a10:	8d 87 8d c2 20 c9    	lea    -0x36df3d73(%rdi),%eax
  401a16:	c3                   	retq   

0000000000401a17 <setval_323>:
  401a17:	c7 07 89 c2 08 c0    	movl   $0xc008c289,(%rdi)
  401a1d:	c3                   	retq   

0000000000401a1e <getval_361>:
  401a1e:	b8 89 d1 c4 db       	mov    $0xdbc4d189,%eax
  401a23:	c3                   	retq   

0000000000401a24 <getval_448>:
  401a24:	b8 48 89 e0 94       	mov    $0x94e08948,%eax
  401a29:	c3                   	retq   

0000000000401a2a <setval_423>:
  401a2a:	c7 07 89 d1 38 c9    	movl   $0xc938d189,(%rdi)
  401a30:	c3                   	retq   

0000000000401a31 <setval_318>:
  401a31:	c7 07 81 c2 08 db    	movl   $0xdb08c281,(%rdi)
  401a37:	c3                   	retq   

0000000000401a38 <setval_314>:
  401a38:	c7 07 48 89 e0 c7    	movl   $0xc7e08948,(%rdi)
  401a3e:	c3                   	retq   

0000000000401a3f <getval_132>:
  401a3f:	b8 89 d1 c2 7b       	mov    $0x7bc2d189,%eax
  401a44:	c3                   	retq   

0000000000401a45 <addval_315>:
  401a45:	8d 87 89 ce 84 c9    	lea    -0x367b3177(%rdi),%eax
  401a4b:	c3                   	retq   

0000000000401a4c <getval_411>:
  401a4c:	b8 48 89 e0 90       	mov    $0x90e08948,%eax
  401a51:	c3                   	retq   

0000000000401a52 <setval_434>:
  401a52:	c7 07 c9 ce 90 c3    	movl   $0xc390cec9,(%rdi)
  401a58:	c3                   	retq   

0000000000401a59 <getval_118>:
  401a59:	b8 81 c2 20 c9       	mov    $0xc920c281,%eax
  401a5e:	c3                   	retq   

0000000000401a5f <setval_165>:
  401a5f:	c7 07 89 ce 08 c0    	movl   $0xc008ce89,(%rdi)
  401a65:	c3                   	retq   

0000000000401a66 <getval_201>:
  401a66:	b8 81 d1 84 d2       	mov    $0xd284d181,%eax
  401a6b:	c3                   	retq   

0000000000401a6c <setval_244>:
  401a6c:	c7 07 89 c2 30 d2    	movl   $0xd230c289,(%rdi)
  401a72:	c3                   	retq   

0000000000401a73 <getval_109>:
  401a73:	b8 48 89 e0 c3       	mov    $0xc3e08948,%eax
  401a78:	c3                   	retq   

0000000000401a79 <addval_329>:
  401a79:	8d 87 89 c2 38 db    	lea    -0x24c73d77(%rdi),%eax
  401a7f:	c3                   	retq   

0000000000401a80 <getval_379>:
  401a80:	b8 48 89 e0 c7       	mov    $0xc7e08948,%eax
  401a85:	c3                   	retq   

0000000000401a86 <addval_154>:
  401a86:	8d 87 8d ce 08 c0    	lea    -0x3ff73173(%rdi),%eax
  401a8c:	c3                   	retq   

0000000000401a8d <getval_189>:
  401a8d:	b8 81 d1 20 db       	mov    $0xdb20d181,%eax
  401a92:	c3                   	retq   

0000000000401a93 <addval_483>:
  401a93:	8d 87 c9 d1 90 90    	lea    -0x6f6f2e37(%rdi),%eax
  401a99:	c3                   	retq   

0000000000401a9a <addval_301>:
  401a9a:	8d 87 89 c2 28 c0    	lea    -0x3fd73d77(%rdi),%eax
  401aa0:	c3                   	retq   

0000000000401aa1 <end_farm>:
  401aa1:	b8 01 00 00 00       	mov    $0x1,%eax
  401aa6:	c3                   	retq   
  401aa7:	66 0f 1f 84 00 00 00 	nopw   0x0(%rax,%rax,1)
  401aae:	00 00 

0000000000401ab0 <save_char>:
  401ab0:	8b 05 6e 46 20 00    	mov    0x20466e(%rip),%eax        # 606124 <gets_cnt>
  401ab6:	3d ff 03 00 00       	cmp    $0x3ff,%eax
  401abb:	7f 49                	jg     401b06 <save_char+0x56>
  401abd:	8d 14 40             	lea    (%rax,%rax,2),%edx
  401ac0:	89 f9                	mov    %edi,%ecx
  401ac2:	c0 e9 04             	shr    $0x4,%cl
  401ac5:	83 e1 0f             	and    $0xf,%ecx
  401ac8:	0f b6 b1 70 35 40 00 	movzbl 0x403570(%rcx),%esi
  401acf:	48 63 ca             	movslq %edx,%rcx
  401ad2:	40 88 b1 20 55 60 00 	mov    %sil,0x605520(%rcx)
  401ad9:	8d 4a 01             	lea    0x1(%rdx),%ecx
  401adc:	83 e7 0f             	and    $0xf,%edi
  401adf:	0f b6 b7 70 35 40 00 	movzbl 0x403570(%rdi),%esi
  401ae6:	48 63 c9             	movslq %ecx,%rcx
  401ae9:	40 88 b1 20 55 60 00 	mov    %sil,0x605520(%rcx)
  401af0:	83 c2 02             	add    $0x2,%edx
  401af3:	48 63 d2             	movslq %edx,%rdx
  401af6:	c6 82 20 55 60 00 20 	movb   $0x20,0x605520(%rdx)
  401afd:	83 c0 01             	add    $0x1,%eax
  401b00:	89 05 1e 46 20 00    	mov    %eax,0x20461e(%rip)        # 606124 <gets_cnt>
  401b06:	f3 c3                	repz retq 

0000000000401b08 <save_term>:
  401b08:	8b 05 16 46 20 00    	mov    0x204616(%rip),%eax        # 606124 <gets_cnt>
  401b0e:	8d 04 40             	lea    (%rax,%rax,2),%eax
  401b11:	48 98                	cltq   
  401b13:	c6 80 20 55 60 00 00 	movb   $0x0,0x605520(%rax)
  401b1a:	c3                   	retq   

0000000000401b1b <check_fail>:
  401b1b:	48 83 ec 08          	sub    $0x8,%rsp
  401b1f:	0f be 35 02 46 20 00 	movsbl 0x204602(%rip),%esi        # 606128 <target_prefix>
  401b26:	b9 20 55 60 00       	mov    $0x605520,%ecx
  401b2b:	8b 15 c7 39 20 00    	mov    0x2039c7(%rip),%edx        # 6054f8 <check_level>
  401b31:	bf 73 32 40 00       	mov    $0x403273,%edi
  401b36:	b8 00 00 00 00       	mov    $0x0,%eax
  401b3b:	e8 40 f1 ff ff       	callq  400c80 <printf@plt>
  401b40:	bf 01 00 00 00       	mov    $0x1,%edi
  401b45:	e8 a6 f2 ff ff       	callq  400df0 <exit@plt>

0000000000401b4a <Gets>:
  401b4a:	41 54                	push   %r12
  401b4c:	55                   	push   %rbp
  401b4d:	53                   	push   %rbx
  401b4e:	49 89 fc             	mov    %rdi,%r12
  401b51:	c7 05 c9 45 20 00 00 	movl   $0x0,0x2045c9(%rip)        # 606124 <gets_cnt>
  401b58:	00 00 00 
  401b5b:	48 89 fb             	mov    %rdi,%rbx
  401b5e:	eb 11                	jmp    401b71 <Gets+0x27>
  401b60:	48 8d 6b 01          	lea    0x1(%rbx),%rbp
  401b64:	88 03                	mov    %al,(%rbx)
  401b66:	0f b6 f8             	movzbl %al,%edi
  401b69:	e8 42 ff ff ff       	callq  401ab0 <save_char>
  401b6e:	48 89 eb             	mov    %rbp,%rbx
  401b71:	48 8b 3d 78 39 20 00 	mov    0x203978(%rip),%rdi        # 6054f0 <infile>
  401b78:	e8 e3 f1 ff ff       	callq  400d60 <_IO_getc@plt>
  401b7d:	83 f8 ff             	cmp    $0xffffffff,%eax
  401b80:	74 05                	je     401b87 <Gets+0x3d>
  401b82:	83 f8 0a             	cmp    $0xa,%eax
  401b85:	75 d9                	jne    401b60 <Gets+0x16>
  401b87:	c6 03 00             	movb   $0x0,(%rbx)
  401b8a:	b8 00 00 00 00       	mov    $0x0,%eax
  401b8f:	e8 74 ff ff ff       	callq  401b08 <save_term>
  401b94:	4c 89 e0             	mov    %r12,%rax
  401b97:	5b                   	pop    %rbx
  401b98:	5d                   	pop    %rbp
  401b99:	41 5c                	pop    %r12
  401b9b:	c3                   	retq   

0000000000401b9c <notify_server>:
  401b9c:	83 3d 65 39 20 00 00 	cmpl   $0x0,0x203965(%rip)        # 605508 <is_checker>
  401ba3:	0f 85 8e 01 00 00    	jne    401d37 <notify_server+0x19b>
  401ba9:	53                   	push   %rbx
  401baa:	48 81 ec 10 40 00 00 	sub    $0x4010,%rsp
  401bb1:	89 fb                	mov    %edi,%ebx
  401bb3:	8b 05 6b 45 20 00    	mov    0x20456b(%rip),%eax        # 606124 <gets_cnt>
  401bb9:	83 c0 64             	add    $0x64,%eax
  401bbc:	3d 00 20 00 00       	cmp    $0x2000,%eax
  401bc1:	7e 19                	jle    401bdc <notify_server+0x40>
  401bc3:	bf a8 33 40 00       	mov    $0x4033a8,%edi
  401bc8:	b8 00 00 00 00       	mov    $0x0,%eax
  401bcd:	e8 ae f0 ff ff       	callq  400c80 <printf@plt>
  401bd2:	bf 01 00 00 00       	mov    $0x1,%edi
  401bd7:	e8 14 f2 ff ff       	callq  400df0 <exit@plt>
  401bdc:	44 0f be 0d 44 45 20 	movsbl 0x204544(%rip),%r9d        # 606128 <target_prefix>
  401be3:	00 
  401be4:	83 3d bd 38 20 00 00 	cmpl   $0x0,0x2038bd(%rip)        # 6054a8 <notify>
  401beb:	74 09                	je     401bf6 <notify_server+0x5a>
  401bed:	44 8b 05 0c 39 20 00 	mov    0x20390c(%rip),%r8d        # 605500 <authkey>
  401bf4:	eb 06                	jmp    401bfc <notify_server+0x60>
  401bf6:	41 b8 ff ff ff ff    	mov    $0xffffffff,%r8d
  401bfc:	85 db                	test   %ebx,%ebx
  401bfe:	74 07                	je     401c07 <notify_server+0x6b>
  401c00:	b9 89 32 40 00       	mov    $0x403289,%ecx
  401c05:	eb 05                	jmp    401c0c <notify_server+0x70>
  401c07:	b9 8e 32 40 00       	mov    $0x40328e,%ecx
  401c0c:	48 c7 44 24 08 20 55 	movq   $0x605520,0x8(%rsp)
  401c13:	60 00 
  401c15:	89 34 24             	mov    %esi,(%rsp)
  401c18:	8b 15 4a 35 20 00    	mov    0x20354a(%rip),%edx        # 605168 <target_id>
  401c1e:	be 93 32 40 00       	mov    $0x403293,%esi
  401c23:	48 8d bc 24 10 20 00 	lea    0x2010(%rsp),%rdi
  401c2a:	00 
  401c2b:	b8 00 00 00 00       	mov    $0x0,%eax
  401c30:	e8 ab f1 ff ff       	callq  400de0 <sprintf@plt>
  401c35:	83 3d 6c 38 20 00 00 	cmpl   $0x0,0x20386c(%rip)        # 6054a8 <notify>
  401c3c:	74 78                	je     401cb6 <notify_server+0x11a>
  401c3e:	85 db                	test   %ebx,%ebx
  401c40:	74 68                	je     401caa <notify_server+0x10e>
  401c42:	4c 8d 4c 24 10       	lea    0x10(%rsp),%r9
  401c47:	41 b8 00 00 00 00    	mov    $0x0,%r8d
  401c4d:	48 8d 8c 24 10 20 00 	lea    0x2010(%rsp),%rcx
  401c54:	00 
  401c55:	48 8b 15 14 35 20 00 	mov    0x203514(%rip),%rdx        # 605170 <lab>
  401c5c:	48 8b 35 15 35 20 00 	mov    0x203515(%rip),%rsi        # 605178 <course>
  401c63:	48 8b 3d f6 34 20 00 	mov    0x2034f6(%rip),%rdi        # 605160 <user_id>
  401c6a:	e8 94 0f 00 00       	callq  402c03 <driver_post>
  401c6f:	85 c0                	test   %eax,%eax
  401c71:	79 1e                	jns    401c91 <notify_server+0xf5>
  401c73:	48 8d 74 24 10       	lea    0x10(%rsp),%rsi
  401c78:	bf af 32 40 00       	mov    $0x4032af,%edi
  401c7d:	b8 00 00 00 00       	mov    $0x0,%eax
  401c82:	e8 f9 ef ff ff       	callq  400c80 <printf@plt>
  401c87:	bf 01 00 00 00       	mov    $0x1,%edi
  401c8c:	e8 5f f1 ff ff       	callq  400df0 <exit@plt>
  401c91:	bf d8 33 40 00       	mov    $0x4033d8,%edi
  401c96:	e8 b5 ef ff ff       	callq  400c50 <puts@plt>
  401c9b:	bf bb 32 40 00       	mov    $0x4032bb,%edi
  401ca0:	e8 ab ef ff ff       	callq  400c50 <puts@plt>
  401ca5:	e9 85 00 00 00       	jmpq   401d2f <notify_server+0x193>
  401caa:	bf c5 32 40 00       	mov    $0x4032c5,%edi
  401caf:	e8 9c ef ff ff       	callq  400c50 <puts@plt>
  401cb4:	eb 79                	jmp    401d2f <notify_server+0x193>
  401cb6:	85 db                	test   %ebx,%ebx
  401cb8:	74 08                	je     401cc2 <notify_server+0x126>
  401cba:	be 89 32 40 00       	mov    $0x403289,%esi
  401cbf:	90                   	nop
  401cc0:	eb 05                	jmp    401cc7 <notify_server+0x12b>
  401cc2:	be 8e 32 40 00       	mov    $0x40328e,%esi
  401cc7:	bf 10 34 40 00       	mov    $0x403410,%edi
  401ccc:	b8 00 00 00 00       	mov    $0x0,%eax
  401cd1:	e8 aa ef ff ff       	callq  400c80 <printf@plt>
  401cd6:	48 8b 35 83 34 20 00 	mov    0x203483(%rip),%rsi        # 605160 <user_id>
  401cdd:	bf cc 32 40 00       	mov    $0x4032cc,%edi
  401ce2:	b8 00 00 00 00       	mov    $0x0,%eax
  401ce7:	e8 94 ef ff ff       	callq  400c80 <printf@plt>
  401cec:	48 8b 35 85 34 20 00 	mov    0x203485(%rip),%rsi        # 605178 <course>
  401cf3:	bf d9 32 40 00       	mov    $0x4032d9,%edi
  401cf8:	b8 00 00 00 00       	mov    $0x0,%eax
  401cfd:	e8 7e ef ff ff       	callq  400c80 <printf@plt>
  401d02:	48 8b 35 67 34 20 00 	mov    0x203467(%rip),%rsi        # 605170 <lab>
  401d09:	bf e5 32 40 00       	mov    $0x4032e5,%edi
  401d0e:	b8 00 00 00 00       	mov    $0x0,%eax
  401d13:	e8 68 ef ff ff       	callq  400c80 <printf@plt>
  401d18:	48 8d b4 24 10 20 00 	lea    0x2010(%rsp),%rsi
  401d1f:	00 
  401d20:	bf ee 32 40 00       	mov    $0x4032ee,%edi
  401d25:	b8 00 00 00 00       	mov    $0x0,%eax
  401d2a:	e8 51 ef ff ff       	callq  400c80 <printf@plt>
  401d2f:	48 81 c4 10 40 00 00 	add    $0x4010,%rsp
  401d36:	5b                   	pop    %rbx
  401d37:	f3 c3                	repz retq 

0000000000401d39 <validate>:
  401d39:	53                   	push   %rbx
  401d3a:	89 fb                	mov    %edi,%ebx
  401d3c:	83 3d c5 37 20 00 00 	cmpl   $0x0,0x2037c5(%rip)        # 605508 <is_checker>
  401d43:	74 60                	je     401da5 <validate+0x6c>
  401d45:	39 3d b1 37 20 00    	cmp    %edi,0x2037b1(%rip)        # 6054fc <vlevel>
  401d4b:	74 14                	je     401d61 <validate+0x28>
  401d4d:	bf fa 32 40 00       	mov    $0x4032fa,%edi
  401d52:	e8 f9 ee ff ff       	callq  400c50 <puts@plt>
  401d57:	b8 00 00 00 00       	mov    $0x0,%eax
  401d5c:	e8 ba fd ff ff       	callq  401b1b <check_fail>
  401d61:	8b 35 91 37 20 00    	mov    0x203791(%rip),%esi        # 6054f8 <check_level>
  401d67:	39 fe                	cmp    %edi,%esi
  401d69:	74 1b                	je     401d86 <validate+0x4d>
  401d6b:	89 fa                	mov    %edi,%edx
  401d6d:	bf 38 34 40 00       	mov    $0x403438,%edi
  401d72:	b8 00 00 00 00       	mov    $0x0,%eax
  401d77:	e8 04 ef ff ff       	callq  400c80 <printf@plt>
  401d7c:	b8 00 00 00 00       	mov    $0x0,%eax
  401d81:	e8 95 fd ff ff       	callq  401b1b <check_fail>
  401d86:	0f be 35 9b 43 20 00 	movsbl 0x20439b(%rip),%esi        # 606128 <target_prefix>
  401d8d:	b9 20 55 60 00       	mov    $0x605520,%ecx
  401d92:	89 fa                	mov    %edi,%edx
  401d94:	bf 18 33 40 00       	mov    $0x403318,%edi
  401d99:	b8 00 00 00 00       	mov    $0x0,%eax
  401d9e:	e8 dd ee ff ff       	callq  400c80 <printf@plt>
  401da3:	eb 44                	jmp    401de9 <validate+0xb0>
  401da5:	39 3d 51 37 20 00    	cmp    %edi,0x203751(%rip)        # 6054fc <vlevel>
  401dab:	74 18                	je     401dc5 <validate+0x8c>
  401dad:	bf fa 32 40 00       	mov    $0x4032fa,%edi
  401db2:	e8 99 ee ff ff       	callq  400c50 <puts@plt>
  401db7:	89 de                	mov    %ebx,%esi
  401db9:	bf 00 00 00 00       	mov    $0x0,%edi
  401dbe:	e8 d9 fd ff ff       	callq  401b9c <notify_server>
  401dc3:	eb 24                	jmp    401de9 <validate+0xb0>
  401dc5:	0f be 15 5c 43 20 00 	movsbl 0x20435c(%rip),%edx        # 606128 <target_prefix>
  401dcc:	89 fe                	mov    %edi,%esi
  401dce:	bf 60 34 40 00       	mov    $0x403460,%edi
  401dd3:	b8 00 00 00 00       	mov    $0x0,%eax
  401dd8:	e8 a3 ee ff ff       	callq  400c80 <printf@plt>
  401ddd:	89 de                	mov    %ebx,%esi
  401ddf:	bf 01 00 00 00       	mov    $0x1,%edi
  401de4:	e8 b3 fd ff ff       	callq  401b9c <notify_server>
  401de9:	5b                   	pop    %rbx
  401dea:	c3                   	retq   

0000000000401deb <fail>:
  401deb:	48 83 ec 08          	sub    $0x8,%rsp
  401def:	83 3d 12 37 20 00 00 	cmpl   $0x0,0x203712(%rip)        # 605508 <is_checker>
  401df6:	74 0a                	je     401e02 <fail+0x17>
  401df8:	b8 00 00 00 00       	mov    $0x0,%eax
  401dfd:	e8 19 fd ff ff       	callq  401b1b <check_fail>
  401e02:	89 fe                	mov    %edi,%esi
  401e04:	bf 00 00 00 00       	mov    $0x0,%edi
  401e09:	e8 8e fd ff ff       	callq  401b9c <notify_server>
  401e0e:	48 83 c4 08          	add    $0x8,%rsp
  401e12:	c3                   	retq   

0000000000401e13 <bushandler>:
  401e13:	48 83 ec 08          	sub    $0x8,%rsp
  401e17:	83 3d ea 36 20 00 00 	cmpl   $0x0,0x2036ea(%rip)        # 605508 <is_checker>
  401e1e:	74 14                	je     401e34 <bushandler+0x21>
  401e20:	bf 2d 33 40 00       	mov    $0x40332d,%edi
  401e25:	e8 26 ee ff ff       	callq  400c50 <puts@plt>
  401e2a:	b8 00 00 00 00       	mov    $0x0,%eax
  401e2f:	e8 e7 fc ff ff       	callq  401b1b <check_fail>
  401e34:	bf 98 34 40 00       	mov    $0x403498,%edi
  401e39:	e8 12 ee ff ff       	callq  400c50 <puts@plt>
  401e3e:	bf 37 33 40 00       	mov    $0x403337,%edi
  401e43:	e8 08 ee ff ff       	callq  400c50 <puts@plt>
  401e48:	be 00 00 00 00       	mov    $0x0,%esi
  401e4d:	bf 00 00 00 00       	mov    $0x0,%edi
  401e52:	e8 45 fd ff ff       	callq  401b9c <notify_server>
  401e57:	bf 01 00 00 00       	mov    $0x1,%edi
  401e5c:	e8 8f ef ff ff       	callq  400df0 <exit@plt>

0000000000401e61 <seghandler>:
  401e61:	48 83 ec 08          	sub    $0x8,%rsp
  401e65:	83 3d 9c 36 20 00 00 	cmpl   $0x0,0x20369c(%rip)        # 605508 <is_checker>
  401e6c:	74 14                	je     401e82 <seghandler+0x21>
  401e6e:	bf 4d 33 40 00       	mov    $0x40334d,%edi
  401e73:	e8 d8 ed ff ff       	callq  400c50 <puts@plt>
  401e78:	b8 00 00 00 00       	mov    $0x0,%eax
  401e7d:	e8 99 fc ff ff       	callq  401b1b <check_fail>
  401e82:	bf b8 34 40 00       	mov    $0x4034b8,%edi
  401e87:	e8 c4 ed ff ff       	callq  400c50 <puts@plt>
  401e8c:	bf 37 33 40 00       	mov    $0x403337,%edi
  401e91:	e8 ba ed ff ff       	callq  400c50 <puts@plt>
  401e96:	be 00 00 00 00       	mov    $0x0,%esi
  401e9b:	bf 00 00 00 00       	mov    $0x0,%edi
  401ea0:	e8 f7 fc ff ff       	callq  401b9c <notify_server>
  401ea5:	bf 01 00 00 00       	mov    $0x1,%edi
  401eaa:	e8 41 ef ff ff       	callq  400df0 <exit@plt>

0000000000401eaf <illegalhandler>:
  401eaf:	48 83 ec 08          	sub    $0x8,%rsp
  401eb3:	83 3d 4e 36 20 00 00 	cmpl   $0x0,0x20364e(%rip)        # 605508 <is_checker>
  401eba:	74 14                	je     401ed0 <illegalhandler+0x21>
  401ebc:	bf 60 33 40 00       	mov    $0x403360,%edi
  401ec1:	e8 8a ed ff ff       	callq  400c50 <puts@plt>
  401ec6:	b8 00 00 00 00       	mov    $0x0,%eax
  401ecb:	e8 4b fc ff ff       	callq  401b1b <check_fail>
  401ed0:	bf e0 34 40 00       	mov    $0x4034e0,%edi
  401ed5:	e8 76 ed ff ff       	callq  400c50 <puts@plt>
  401eda:	bf 37 33 40 00       	mov    $0x403337,%edi
  401edf:	e8 6c ed ff ff       	callq  400c50 <puts@plt>
  401ee4:	be 00 00 00 00       	mov    $0x0,%esi
  401ee9:	bf 00 00 00 00       	mov    $0x0,%edi
  401eee:	e8 a9 fc ff ff       	callq  401b9c <notify_server>
  401ef3:	bf 01 00 00 00       	mov    $0x1,%edi
  401ef8:	e8 f3 ee ff ff       	callq  400df0 <exit@plt>

0000000000401efd <sigalrmhandler>:
  401efd:	48 83 ec 08          	sub    $0x8,%rsp
  401f01:	83 3d 00 36 20 00 00 	cmpl   $0x0,0x203600(%rip)        # 605508 <is_checker>
  401f08:	74 14                	je     401f1e <sigalrmhandler+0x21>
  401f0a:	bf 74 33 40 00       	mov    $0x403374,%edi
  401f0f:	e8 3c ed ff ff       	callq  400c50 <puts@plt>
  401f14:	b8 00 00 00 00       	mov    $0x0,%eax
  401f19:	e8 fd fb ff ff       	callq  401b1b <check_fail>
  401f1e:	be 05 00 00 00       	mov    $0x5,%esi
  401f23:	bf 10 35 40 00       	mov    $0x403510,%edi
  401f28:	b8 00 00 00 00       	mov    $0x0,%eax
  401f2d:	e8 4e ed ff ff       	callq  400c80 <printf@plt>
  401f32:	be 00 00 00 00       	mov    $0x0,%esi
  401f37:	bf 00 00 00 00       	mov    $0x0,%edi
  401f3c:	e8 5b fc ff ff       	callq  401b9c <notify_server>
  401f41:	bf 01 00 00 00       	mov    $0x1,%edi
  401f46:	e8 a5 ee ff ff       	callq  400df0 <exit@plt>

0000000000401f4b <launch>:
  401f4b:	55                   	push   %rbp
  401f4c:	48 89 e5             	mov    %rsp,%rbp
  401f4f:	48 89 fa             	mov    %rdi,%rdx
  401f52:	48 8d 47 1e          	lea    0x1e(%rdi),%rax
  401f56:	48 83 e0 f0          	and    $0xfffffffffffffff0,%rax
  401f5a:	48 29 c4             	sub    %rax,%rsp
  401f5d:	48 8d 7c 24 0f       	lea    0xf(%rsp),%rdi
  401f62:	48 83 e7 f0          	and    $0xfffffffffffffff0,%rdi
  401f66:	be f4 00 00 00       	mov    $0xf4,%esi
  401f6b:	e8 20 ed ff ff       	callq  400c90 <memset@plt>
  401f70:	48 8b 05 49 35 20 00 	mov    0x203549(%rip),%rax        # 6054c0 <stdin@@GLIBC_2.2.5>
  401f77:	48 39 05 72 35 20 00 	cmp    %rax,0x203572(%rip)        # 6054f0 <infile>
  401f7e:	75 0f                	jne    401f8f <launch+0x44>
  401f80:	bf 7c 33 40 00       	mov    $0x40337c,%edi
  401f85:	b8 00 00 00 00       	mov    $0x0,%eax
  401f8a:	e8 f1 ec ff ff       	callq  400c80 <printf@plt>
  401f8f:	c7 05 63 35 20 00 00 	movl   $0x0,0x203563(%rip)        # 6054fc <vlevel>
  401f96:	00 00 00 
  401f99:	b8 00 00 00 00       	mov    $0x0,%eax
  401f9e:	e8 bd f9 ff ff       	callq  401960 <test>
  401fa3:	83 3d 5e 35 20 00 00 	cmpl   $0x0,0x20355e(%rip)        # 605508 <is_checker>
  401faa:	74 14                	je     401fc0 <launch+0x75>
  401fac:	bf 89 33 40 00       	mov    $0x403389,%edi
  401fb1:	e8 9a ec ff ff       	callq  400c50 <puts@plt>
  401fb6:	b8 00 00 00 00       	mov    $0x0,%eax
  401fbb:	e8 5b fb ff ff       	callq  401b1b <check_fail>
  401fc0:	bf 94 33 40 00       	mov    $0x403394,%edi
  401fc5:	e8 86 ec ff ff       	callq  400c50 <puts@plt>
  401fca:	c9                   	leaveq 
  401fcb:	c3                   	retq   

0000000000401fcc <stable_launch>:
  401fcc:	53                   	push   %rbx
  401fcd:	48 89 3d 14 35 20 00 	mov    %rdi,0x203514(%rip)        # 6054e8 <global_offset>
  401fd4:	41 b9 00 00 00 00    	mov    $0x0,%r9d
  401fda:	41 b8 00 00 00 00    	mov    $0x0,%r8d
  401fe0:	b9 32 01 00 00       	mov    $0x132,%ecx
  401fe5:	ba 07 00 00 00       	mov    $0x7,%edx
  401fea:	be 00 00 10 00       	mov    $0x100000,%esi
  401fef:	bf 00 60 58 55       	mov    $0x55586000,%edi
  401ff4:	e8 77 ec ff ff       	callq  400c70 <mmap@plt>
  401ff9:	48 89 c3             	mov    %rax,%rbx
  401ffc:	48 3d 00 60 58 55    	cmp    $0x55586000,%rax
  402002:	74 32                	je     402036 <stable_launch+0x6a>
  402004:	be 00 00 10 00       	mov    $0x100000,%esi
  402009:	48 89 c7             	mov    %rax,%rdi
  40200c:	e8 6f ed ff ff       	callq  400d80 <munmap@plt>
  402011:	ba 00 60 58 55       	mov    $0x55586000,%edx
  402016:	be 48 35 40 00       	mov    $0x403548,%esi
  40201b:	48 8b 3d ae 34 20 00 	mov    0x2034ae(%rip),%rdi        # 6054d0 <stderr@@GLIBC_2.2.5>
  402022:	b8 00 00 00 00       	mov    $0x0,%eax
  402027:	e8 d4 ec ff ff       	callq  400d00 <fprintf@plt>
  40202c:	bf 01 00 00 00       	mov    $0x1,%edi
  402031:	e8 ba ed ff ff       	callq  400df0 <exit@plt>
  402036:	48 8d 90 f8 ff 0f 00 	lea    0xffff8(%rax),%rdx
  40203d:	48 89 15 ec 40 20 00 	mov    %rdx,0x2040ec(%rip)        # 606130 <stack_top>
  402044:	48 89 e0             	mov    %rsp,%rax
  402047:	48 89 d4             	mov    %rdx,%rsp
  40204a:	48 89 c2             	mov    %rax,%rdx
  40204d:	48 89 15 8c 34 20 00 	mov    %rdx,0x20348c(%rip)        # 6054e0 <global_save_stack>
  402054:	48 8b 3d 8d 34 20 00 	mov    0x20348d(%rip),%rdi        # 6054e8 <global_offset>
  40205b:	e8 eb fe ff ff       	callq  401f4b <launch>
  402060:	48 8b 05 79 34 20 00 	mov    0x203479(%rip),%rax        # 6054e0 <global_save_stack>
  402067:	48 89 c4             	mov    %rax,%rsp
  40206a:	be 00 00 10 00       	mov    $0x100000,%esi
  40206f:	48 89 df             	mov    %rbx,%rdi
  402072:	e8 09 ed ff ff       	callq  400d80 <munmap@plt>
  402077:	5b                   	pop    %rbx
  402078:	c3                   	retq   
  402079:	0f 1f 80 00 00 00 00 	nopl   0x0(%rax)

0000000000402080 <rio_readinitb>:
  402080:	89 37                	mov    %esi,(%rdi)
  402082:	c7 47 04 00 00 00 00 	movl   $0x0,0x4(%rdi)
  402089:	48 8d 47 10          	lea    0x10(%rdi),%rax
  40208d:	48 89 47 08          	mov    %rax,0x8(%rdi)
  402091:	c3                   	retq   

0000000000402092 <sigalrm_handler>:
  402092:	48 83 ec 08          	sub    $0x8,%rsp
  402096:	ba 00 00 00 00       	mov    $0x0,%edx
  40209b:	be 80 35 40 00       	mov    $0x403580,%esi
  4020a0:	48 8b 3d 29 34 20 00 	mov    0x203429(%rip),%rdi        # 6054d0 <stderr@@GLIBC_2.2.5>
  4020a7:	b8 00 00 00 00       	mov    $0x0,%eax
  4020ac:	e8 4f ec ff ff       	callq  400d00 <fprintf@plt>
  4020b1:	bf 01 00 00 00       	mov    $0x1,%edi
  4020b6:	e8 35 ed ff ff       	callq  400df0 <exit@plt>

00000000004020bb <urlencode>:
  4020bb:	41 54                	push   %r12
  4020bd:	55                   	push   %rbp
  4020be:	53                   	push   %rbx
  4020bf:	48 83 ec 10          	sub    $0x10,%rsp
  4020c3:	48 89 fb             	mov    %rdi,%rbx
  4020c6:	48 89 f5             	mov    %rsi,%rbp
  4020c9:	b8 00 00 00 00       	mov    $0x0,%eax
  4020ce:	48 c7 c1 ff ff ff ff 	mov    $0xffffffffffffffff,%rcx
  4020d5:	f2 ae                	repnz scas %es:(%rdi),%al
  4020d7:	48 f7 d1             	not    %rcx
  4020da:	8d 41 ff             	lea    -0x1(%rcx),%eax
  4020dd:	e9 93 00 00 00       	jmpq   402175 <urlencode+0xba>
  4020e2:	0f b6 13             	movzbl (%rbx),%edx
  4020e5:	80 fa 2a             	cmp    $0x2a,%dl
  4020e8:	0f 94 c1             	sete   %cl
  4020eb:	80 fa 2d             	cmp    $0x2d,%dl
  4020ee:	0f 94 c0             	sete   %al
  4020f1:	08 c1                	or     %al,%cl
  4020f3:	75 1f                	jne    402114 <urlencode+0x59>
  4020f5:	80 fa 2e             	cmp    $0x2e,%dl
  4020f8:	74 1a                	je     402114 <urlencode+0x59>
  4020fa:	80 fa 5f             	cmp    $0x5f,%dl
  4020fd:	74 15                	je     402114 <urlencode+0x59>
  4020ff:	8d 42 d0             	lea    -0x30(%rdx),%eax
  402102:	3c 09                	cmp    $0x9,%al
  402104:	76 0e                	jbe    402114 <urlencode+0x59>
  402106:	8d 42 bf             	lea    -0x41(%rdx),%eax
  402109:	3c 19                	cmp    $0x19,%al
  40210b:	76 07                	jbe    402114 <urlencode+0x59>
  40210d:	8d 42 9f             	lea    -0x61(%rdx),%eax
  402110:	3c 19                	cmp    $0x19,%al
  402112:	77 09                	ja     40211d <urlencode+0x62>
  402114:	88 55 00             	mov    %dl,0x0(%rbp)
  402117:	48 8d 6d 01          	lea    0x1(%rbp),%rbp
  40211b:	eb 51                	jmp    40216e <urlencode+0xb3>
  40211d:	80 fa 20             	cmp    $0x20,%dl
  402120:	75 0a                	jne    40212c <urlencode+0x71>
  402122:	c6 45 00 2b          	movb   $0x2b,0x0(%rbp)
  402126:	48 8d 6d 01          	lea    0x1(%rbp),%rbp
  40212a:	eb 42                	jmp    40216e <urlencode+0xb3>
  40212c:	8d 42 e0             	lea    -0x20(%rdx),%eax
  40212f:	3c 5f                	cmp    $0x5f,%al
  402131:	0f 96 c1             	setbe  %cl
  402134:	80 fa 09             	cmp    $0x9,%dl
  402137:	0f 94 c0             	sete   %al
  40213a:	08 c1                	or     %al,%cl
  40213c:	74 45                	je     402183 <urlencode+0xc8>
  40213e:	0f b6 d2             	movzbl %dl,%edx
  402141:	be 18 36 40 00       	mov    $0x403618,%esi
  402146:	48 89 e7             	mov    %rsp,%rdi
  402149:	b8 00 00 00 00       	mov    $0x0,%eax
  40214e:	e8 8d ec ff ff       	callq  400de0 <sprintf@plt>
  402153:	0f b6 04 24          	movzbl (%rsp),%eax
  402157:	88 45 00             	mov    %al,0x0(%rbp)
  40215a:	0f b6 44 24 01       	movzbl 0x1(%rsp),%eax
  40215f:	88 45 01             	mov    %al,0x1(%rbp)
  402162:	0f b6 44 24 02       	movzbl 0x2(%rsp),%eax
  402167:	88 45 02             	mov    %al,0x2(%rbp)
  40216a:	48 8d 6d 03          	lea    0x3(%rbp),%rbp
  40216e:	48 83 c3 01          	add    $0x1,%rbx
  402172:	44 89 e0             	mov    %r12d,%eax
  402175:	44 8d 60 ff          	lea    -0x1(%rax),%r12d
  402179:	85 c0                	test   %eax,%eax
  40217b:	0f 85 61 ff ff ff    	jne    4020e2 <urlencode+0x27>
  402181:	eb 05                	jmp    402188 <urlencode+0xcd>
  402183:	b8 ff ff ff ff       	mov    $0xffffffff,%eax
  402188:	48 83 c4 10          	add    $0x10,%rsp
  40218c:	5b                   	pop    %rbx
  40218d:	5d                   	pop    %rbp
  40218e:	41 5c                	pop    %r12
  402190:	c3                   	retq   

0000000000402191 <rio_writen>:
  402191:	41 55                	push   %r13
  402193:	41 54                	push   %r12
  402195:	55                   	push   %rbp
  402196:	53                   	push   %rbx
  402197:	48 83 ec 08          	sub    $0x8,%rsp
  40219b:	41 89 fc             	mov    %edi,%r12d
  40219e:	48 89 f5             	mov    %rsi,%rbp
  4021a1:	49 89 d5             	mov    %rdx,%r13
  4021a4:	48 89 d3             	mov    %rdx,%rbx
  4021a7:	eb 28                	jmp    4021d1 <rio_writen+0x40>
  4021a9:	48 89 da             	mov    %rbx,%rdx
  4021ac:	48 89 ee             	mov    %rbp,%rsi
  4021af:	44 89 e7             	mov    %r12d,%edi
  4021b2:	e8 a9 ea ff ff       	callq  400c60 <write@plt>
  4021b7:	48 85 c0             	test   %rax,%rax
  4021ba:	7f 0f                	jg     4021cb <rio_writen+0x3a>
  4021bc:	e8 4f ea ff ff       	callq  400c10 <__errno_location@plt>
  4021c1:	83 38 04             	cmpl   $0x4,(%rax)
  4021c4:	75 15                	jne    4021db <rio_writen+0x4a>
  4021c6:	b8 00 00 00 00       	mov    $0x0,%eax
  4021cb:	48 29 c3             	sub    %rax,%rbx
  4021ce:	48 01 c5             	add    %rax,%rbp
  4021d1:	48 85 db             	test   %rbx,%rbx
  4021d4:	75 d3                	jne    4021a9 <rio_writen+0x18>
  4021d6:	4c 89 e8             	mov    %r13,%rax
  4021d9:	eb 07                	jmp    4021e2 <rio_writen+0x51>
  4021db:	48 c7 c0 ff ff ff ff 	mov    $0xffffffffffffffff,%rax
  4021e2:	48 83 c4 08          	add    $0x8,%rsp
  4021e6:	5b                   	pop    %rbx
  4021e7:	5d                   	pop    %rbp
  4021e8:	41 5c                	pop    %r12
  4021ea:	41 5d                	pop    %r13
  4021ec:	c3                   	retq   

00000000004021ed <rio_read>:
  4021ed:	41 56                	push   %r14
  4021ef:	41 55                	push   %r13
  4021f1:	41 54                	push   %r12
  4021f3:	55                   	push   %rbp
  4021f4:	53                   	push   %rbx
  4021f5:	48 89 fb             	mov    %rdi,%rbx
  4021f8:	49 89 f6             	mov    %rsi,%r14
  4021fb:	49 89 d5             	mov    %rdx,%r13
  4021fe:	4c 8d 67 10          	lea    0x10(%rdi),%r12
  402202:	eb 2a                	jmp    40222e <rio_read+0x41>
  402204:	ba 00 20 00 00       	mov    $0x2000,%edx
  402209:	4c 89 e6             	mov    %r12,%rsi
  40220c:	8b 3b                	mov    (%rbx),%edi
  40220e:	e8 ad ea ff ff       	callq  400cc0 <read@plt>
  402213:	89 43 04             	mov    %eax,0x4(%rbx)
  402216:	85 c0                	test   %eax,%eax
  402218:	79 0c                	jns    402226 <rio_read+0x39>
  40221a:	e8 f1 e9 ff ff       	callq  400c10 <__errno_location@plt>
  40221f:	83 38 04             	cmpl   $0x4,(%rax)
  402222:	74 0a                	je     40222e <rio_read+0x41>
  402224:	eb 37                	jmp    40225d <rio_read+0x70>
  402226:	85 c0                	test   %eax,%eax
  402228:	74 3c                	je     402266 <rio_read+0x79>
  40222a:	4c 89 63 08          	mov    %r12,0x8(%rbx)
  40222e:	8b 6b 04             	mov    0x4(%rbx),%ebp
  402231:	85 ed                	test   %ebp,%ebp
  402233:	7e cf                	jle    402204 <rio_read+0x17>
  402235:	89 e8                	mov    %ebp,%eax
  402237:	4c 39 e8             	cmp    %r13,%rax
  40223a:	72 03                	jb     40223f <rio_read+0x52>
  40223c:	44 89 ed             	mov    %r13d,%ebp
  40223f:	4c 63 e5             	movslq %ebp,%r12
  402242:	48 8b 73 08          	mov    0x8(%rbx),%rsi
  402246:	4c 89 e2             	mov    %r12,%rdx
  402249:	4c 89 f7             	mov    %r14,%rdi
  40224c:	e8 df ea ff ff       	callq  400d30 <memcpy@plt>
  402251:	4c 01 63 08          	add    %r12,0x8(%rbx)
  402255:	29 6b 04             	sub    %ebp,0x4(%rbx)
  402258:	4c 89 e0             	mov    %r12,%rax
  40225b:	eb 0e                	jmp    40226b <rio_read+0x7e>
  40225d:	48 c7 c0 ff ff ff ff 	mov    $0xffffffffffffffff,%rax
  402264:	eb 05                	jmp    40226b <rio_read+0x7e>
  402266:	b8 00 00 00 00       	mov    $0x0,%eax
  40226b:	5b                   	pop    %rbx
  40226c:	5d                   	pop    %rbp
  40226d:	41 5c                	pop    %r12
  40226f:	41 5d                	pop    %r13
  402271:	41 5e                	pop    %r14
  402273:	c3                   	retq   

0000000000402274 <rio_readlineb>:
  402274:	41 55                	push   %r13
  402276:	41 54                	push   %r12
  402278:	55                   	push   %rbp
  402279:	53                   	push   %rbx
  40227a:	48 83 ec 18          	sub    $0x18,%rsp
  40227e:	49 89 fd             	mov    %rdi,%r13
  402281:	48 89 f5             	mov    %rsi,%rbp
  402284:	49 89 d4             	mov    %rdx,%r12
  402287:	bb 01 00 00 00       	mov    $0x1,%ebx
  40228c:	eb 3d                	jmp    4022cb <rio_readlineb+0x57>
  40228e:	ba 01 00 00 00       	mov    $0x1,%edx
  402293:	48 8d 74 24 0f       	lea    0xf(%rsp),%rsi
  402298:	4c 89 ef             	mov    %r13,%rdi
  40229b:	e8 4d ff ff ff       	callq  4021ed <rio_read>
  4022a0:	83 f8 01             	cmp    $0x1,%eax
  4022a3:	75 12                	jne    4022b7 <rio_readlineb+0x43>
  4022a5:	48 8d 55 01          	lea    0x1(%rbp),%rdx
  4022a9:	0f b6 44 24 0f       	movzbl 0xf(%rsp),%eax
  4022ae:	88 45 00             	mov    %al,0x0(%rbp)
  4022b1:	3c 0a                	cmp    $0xa,%al
  4022b3:	75 0f                	jne    4022c4 <rio_readlineb+0x50>
  4022b5:	eb 1b                	jmp    4022d2 <rio_readlineb+0x5e>
  4022b7:	85 c0                	test   %eax,%eax
  4022b9:	75 23                	jne    4022de <rio_readlineb+0x6a>
  4022bb:	48 83 fb 01          	cmp    $0x1,%rbx
  4022bf:	90                   	nop
  4022c0:	75 13                	jne    4022d5 <rio_readlineb+0x61>
  4022c2:	eb 23                	jmp    4022e7 <rio_readlineb+0x73>
  4022c4:	48 83 c3 01          	add    $0x1,%rbx
  4022c8:	48 89 d5             	mov    %rdx,%rbp
  4022cb:	4c 39 e3             	cmp    %r12,%rbx
  4022ce:	72 be                	jb     40228e <rio_readlineb+0x1a>
  4022d0:	eb 03                	jmp    4022d5 <rio_readlineb+0x61>
  4022d2:	48 89 d5             	mov    %rdx,%rbp
  4022d5:	c6 45 00 00          	movb   $0x0,0x0(%rbp)
  4022d9:	48 89 d8             	mov    %rbx,%rax
  4022dc:	eb 0e                	jmp    4022ec <rio_readlineb+0x78>
  4022de:	48 c7 c0 ff ff ff ff 	mov    $0xffffffffffffffff,%rax
  4022e5:	eb 05                	jmp    4022ec <rio_readlineb+0x78>
  4022e7:	b8 00 00 00 00       	mov    $0x0,%eax
  4022ec:	48 83 c4 18          	add    $0x18,%rsp
  4022f0:	5b                   	pop    %rbx
  4022f1:	5d                   	pop    %rbp
  4022f2:	41 5c                	pop    %r12
  4022f4:	41 5d                	pop    %r13
  4022f6:	c3                   	retq   

00000000004022f7 <submitr>:
  4022f7:	41 57                	push   %r15
  4022f9:	41 56                	push   %r14
  4022fb:	41 55                	push   %r13
  4022fd:	41 54                	push   %r12
  4022ff:	55                   	push   %rbp
  402300:	53                   	push   %rbx
  402301:	48 81 ec 48 a0 00 00 	sub    $0xa048,%rsp
  402308:	49 89 fc             	mov    %rdi,%r12
  40230b:	89 74 24 04          	mov    %esi,0x4(%rsp)
  40230f:	49 89 d7             	mov    %rdx,%r15
  402312:	49 89 ce             	mov    %rcx,%r14
  402315:	4c 89 44 24 08       	mov    %r8,0x8(%rsp)
  40231a:	4d 89 cd             	mov    %r9,%r13
  40231d:	48 8b 9c 24 80 a0 00 	mov    0xa080(%rsp),%rbx
  402324:	00 
  402325:	c7 84 24 1c 20 00 00 	movl   $0x0,0x201c(%rsp)
  40232c:	00 00 00 00 
  402330:	ba 00 00 00 00       	mov    $0x0,%edx
  402335:	be 01 00 00 00       	mov    $0x1,%esi
  40233a:	bf 02 00 00 00       	mov    $0x2,%edi
  40233f:	e8 cc ea ff ff       	callq  400e10 <socket@plt>
  402344:	89 c5                	mov    %eax,%ebp
  402346:	85 c0                	test   %eax,%eax
  402348:	79 4e                	jns    402398 <submitr+0xa1>
  40234a:	48 b8 45 72 72 6f 72 	movabs $0x43203a726f727245,%rax
  402351:	3a 20 43 
  402354:	48 89 03             	mov    %rax,(%rbx)
  402357:	48 b8 6c 69 65 6e 74 	movabs $0x6e7520746e65696c,%rax
  40235e:	20 75 6e 
  402361:	48 89 43 08          	mov    %rax,0x8(%rbx)
  402365:	48 b8 61 62 6c 65 20 	movabs $0x206f7420656c6261,%rax
  40236c:	74 6f 20 
  40236f:	48 89 43 10          	mov    %rax,0x10(%rbx)
  402373:	48 b8 63 72 65 61 74 	movabs $0x7320657461657263,%rax
  40237a:	65 20 73 
  40237d:	48 89 43 18          	mov    %rax,0x18(%rbx)
  402381:	c7 43 20 6f 63 6b 65 	movl   $0x656b636f,0x20(%rbx)
  402388:	66 c7 43 24 74 00    	movw   $0x74,0x24(%rbx)
  40238e:	b8 ff ff ff ff       	mov    $0xffffffff,%eax
  402393:	e9 68 06 00 00       	jmpq   402a00 <submitr+0x709>
  402398:	4c 89 e7             	mov    %r12,%rdi
  40239b:	e8 50 e9 ff ff       	callq  400cf0 <gethostbyname@plt>
  4023a0:	48 85 c0             	test   %rax,%rax
  4023a3:	75 67                	jne    40240c <submitr+0x115>
  4023a5:	48 b8 45 72 72 6f 72 	movabs $0x44203a726f727245,%rax
  4023ac:	3a 20 44 
  4023af:	48 89 03             	mov    %rax,(%rbx)
  4023b2:	48 b8 4e 53 20 69 73 	movabs $0x6e7520736920534e,%rax
  4023b9:	20 75 6e 
  4023bc:	48 89 43 08          	mov    %rax,0x8(%rbx)
  4023c0:	48 b8 61 62 6c 65 20 	movabs $0x206f7420656c6261,%rax
  4023c7:	74 6f 20 
  4023ca:	48 89 43 10          	mov    %rax,0x10(%rbx)
  4023ce:	48 b8 72 65 73 6f 6c 	movabs $0x2065766c6f736572,%rax
  4023d5:	76 65 20 
  4023d8:	48 89 43 18          	mov    %rax,0x18(%rbx)
  4023dc:	48 b8 73 65 72 76 65 	movabs $0x6120726576726573,%rax
  4023e3:	72 20 61 
  4023e6:	48 89 43 20          	mov    %rax,0x20(%rbx)
  4023ea:	c7 43 28 64 64 72 65 	movl   $0x65726464,0x28(%rbx)
  4023f1:	66 c7 43 2c 73 73    	movw   $0x7373,0x2c(%rbx)
  4023f7:	c6 43 2e 00          	movb   $0x0,0x2e(%rbx)
  4023fb:	89 ef                	mov    %ebp,%edi
  4023fd:	e8 ae e8 ff ff       	callq  400cb0 <close@plt>
  402402:	b8 ff ff ff ff       	mov    $0xffffffff,%eax
  402407:	e9 f4 05 00 00       	jmpq   402a00 <submitr+0x709>
  40240c:	48 c7 84 24 30 a0 00 	movq   $0x0,0xa030(%rsp)
  402413:	00 00 00 00 00 
  402418:	48 c7 84 24 38 a0 00 	movq   $0x0,0xa038(%rsp)
  40241f:	00 00 00 00 00 
  402424:	66 c7 84 24 30 a0 00 	movw   $0x2,0xa030(%rsp)
  40242b:	00 02 00 
  40242e:	48 8b 48 18          	mov    0x18(%rax),%rcx
  402432:	48 63 50 14          	movslq 0x14(%rax),%rdx
  402436:	48 8d b4 24 34 a0 00 	lea    0xa034(%rsp),%rsi
  40243d:	00 
  40243e:	48 8b 39             	mov    (%rcx),%rdi
  402441:	e8 4a e9 ff ff       	callq  400d90 <bcopy@plt>
  402446:	0f b7 44 24 04       	movzwl 0x4(%rsp),%eax
  40244b:	66 c1 c8 08          	ror    $0x8,%ax
  40244f:	66 89 84 24 32 a0 00 	mov    %ax,0xa032(%rsp)
  402456:	00 
  402457:	ba 10 00 00 00       	mov    $0x10,%edx
  40245c:	48 8d b4 24 30 a0 00 	lea    0xa030(%rsp),%rsi
  402463:	00 
  402464:	89 ef                	mov    %ebp,%edi
  402466:	e8 95 e9 ff ff       	callq  400e00 <connect@plt>
  40246b:	85 c0                	test   %eax,%eax
  40246d:	79 59                	jns    4024c8 <submitr+0x1d1>
  40246f:	48 b8 45 72 72 6f 72 	movabs $0x55203a726f727245,%rax
  402476:	3a 20 55 
  402479:	48 89 03             	mov    %rax,(%rbx)
  40247c:	48 b8 6e 61 62 6c 65 	movabs $0x6f7420656c62616e,%rax
  402483:	20 74 6f 
  402486:	48 89 43 08          	mov    %rax,0x8(%rbx)
  40248a:	48 b8 20 63 6f 6e 6e 	movabs $0x7463656e6e6f6320,%rax
  402491:	65 63 74 
  402494:	48 89 43 10          	mov    %rax,0x10(%rbx)
  402498:	48 b8 20 74 6f 20 74 	movabs $0x20656874206f7420,%rax
  40249f:	68 65 20 
  4024a2:	48 89 43 18          	mov    %rax,0x18(%rbx)
  4024a6:	c7 43 20 73 65 72 76 	movl   $0x76726573,0x20(%rbx)
  4024ad:	66 c7 43 24 65 72    	movw   $0x7265,0x24(%rbx)
  4024b3:	c6 43 26 00          	movb   $0x0,0x26(%rbx)
  4024b7:	89 ef                	mov    %ebp,%edi
  4024b9:	e8 f2 e7 ff ff       	callq  400cb0 <close@plt>
  4024be:	b8 ff ff ff ff       	mov    $0xffffffff,%eax
  4024c3:	e9 38 05 00 00       	jmpq   402a00 <submitr+0x709>
  4024c8:	48 c7 c2 ff ff ff ff 	mov    $0xffffffffffffffff,%rdx
  4024cf:	4c 89 ef             	mov    %r13,%rdi
  4024d2:	b8 00 00 00 00       	mov    $0x0,%eax
  4024d7:	48 89 d1             	mov    %rdx,%rcx
  4024da:	f2 ae                	repnz scas %es:(%rdi),%al
  4024dc:	48 f7 d1             	not    %rcx
  4024df:	48 89 ce             	mov    %rcx,%rsi
  4024e2:	4c 89 ff             	mov    %r15,%rdi
  4024e5:	48 89 d1             	mov    %rdx,%rcx
  4024e8:	f2 ae                	repnz scas %es:(%rdi),%al
  4024ea:	48 f7 d1             	not    %rcx
  4024ed:	49 89 c8             	mov    %rcx,%r8
  4024f0:	4c 89 f7             	mov    %r14,%rdi
  4024f3:	48 89 d1             	mov    %rdx,%rcx
  4024f6:	f2 ae                	repnz scas %es:(%rdi),%al
  4024f8:	49 29 c8             	sub    %rcx,%r8
  4024fb:	48 8b 7c 24 08       	mov    0x8(%rsp),%rdi
  402500:	48 89 d1             	mov    %rdx,%rcx
  402503:	f2 ae                	repnz scas %es:(%rdi),%al
  402505:	49 29 c8             	sub    %rcx,%r8
  402508:	48 8d 44 76 fd       	lea    -0x3(%rsi,%rsi,2),%rax
  40250d:	49 8d 44 00 7b       	lea    0x7b(%r8,%rax,1),%rax
  402512:	48 3d 00 20 00 00    	cmp    $0x2000,%rax
  402518:	76 72                	jbe    40258c <submitr+0x295>
  40251a:	48 b8 45 72 72 6f 72 	movabs $0x52203a726f727245,%rax
  402521:	3a 20 52 
  402524:	48 89 03             	mov    %rax,(%rbx)
  402527:	48 b8 65 73 75 6c 74 	movabs $0x747320746c757365,%rax
  40252e:	20 73 74 
  402531:	48 89 43 08          	mov    %rax,0x8(%rbx)
  402535:	48 b8 72 69 6e 67 20 	movabs $0x6f6f7420676e6972,%rax
  40253c:	74 6f 6f 
  40253f:	48 89 43 10          	mov    %rax,0x10(%rbx)
  402543:	48 b8 20 6c 61 72 67 	movabs $0x202e656772616c20,%rax
  40254a:	65 2e 20 
  40254d:	48 89 43 18          	mov    %rax,0x18(%rbx)
  402551:	48 b8 49 6e 63 72 65 	movabs $0x6573616572636e49,%rax
  402558:	61 73 65 
  40255b:	48 89 43 20          	mov    %rax,0x20(%rbx)
  40255f:	48 b8 20 53 55 42 4d 	movabs $0x5254494d42555320,%rax
  402566:	49 54 52 
  402569:	48 89 43 28          	mov    %rax,0x28(%rbx)
  40256d:	48 b8 5f 4d 41 58 42 	movabs $0x46554258414d5f,%rax
  402574:	55 46 00 
  402577:	48 89 43 30          	mov    %rax,0x30(%rbx)
  40257b:	89 ef                	mov    %ebp,%edi
  40257d:	e8 2e e7 ff ff       	callq  400cb0 <close@plt>
  402582:	b8 ff ff ff ff       	mov    $0xffffffff,%eax
  402587:	e9 74 04 00 00       	jmpq   402a00 <submitr+0x709>
  40258c:	48 8d b4 24 20 40 00 	lea    0x4020(%rsp),%rsi
  402593:	00 
  402594:	b9 00 04 00 00       	mov    $0x400,%ecx
  402599:	b8 00 00 00 00       	mov    $0x0,%eax
  40259e:	48 89 f7             	mov    %rsi,%rdi
  4025a1:	f3 48 ab             	rep stos %rax,%es:(%rdi)
  4025a4:	4c 89 ef             	mov    %r13,%rdi
  4025a7:	e8 0f fb ff ff       	callq  4020bb <urlencode>
  4025ac:	85 c0                	test   %eax,%eax
  4025ae:	0f 89 8a 00 00 00    	jns    40263e <submitr+0x347>
  4025b4:	48 b8 45 72 72 6f 72 	movabs $0x52203a726f727245,%rax
  4025bb:	3a 20 52 
  4025be:	48 89 03             	mov    %rax,(%rbx)
  4025c1:	48 b8 65 73 75 6c 74 	movabs $0x747320746c757365,%rax
  4025c8:	20 73 74 
  4025cb:	48 89 43 08          	mov    %rax,0x8(%rbx)
  4025cf:	48 b8 72 69 6e 67 20 	movabs $0x6e6f6320676e6972,%rax
  4025d6:	63 6f 6e 
  4025d9:	48 89 43 10          	mov    %rax,0x10(%rbx)
  4025dd:	48 b8 74 61 69 6e 73 	movabs $0x6e6120736e696174,%rax
  4025e4:	20 61 6e 
  4025e7:	48 89 43 18          	mov    %rax,0x18(%rbx)
  4025eb:	48 b8 20 69 6c 6c 65 	movabs $0x6c6167656c6c6920,%rax
  4025f2:	67 61 6c 
  4025f5:	48 89 43 20          	mov    %rax,0x20(%rbx)
  4025f9:	48 b8 20 6f 72 20 75 	movabs $0x72706e7520726f20,%rax
  402600:	6e 70 72 
  402603:	48 89 43 28          	mov    %rax,0x28(%rbx)
  402607:	48 b8 69 6e 74 61 62 	movabs $0x20656c6261746e69,%rax
  40260e:	6c 65 20 
  402611:	48 89 43 30          	mov    %rax,0x30(%rbx)
  402615:	48 b8 63 68 61 72 61 	movabs $0x6574636172616863,%rax
  40261c:	63 74 65 
  40261f:	48 89 43 38          	mov    %rax,0x38(%rbx)
  402623:	66 c7 43 40 72 2e    	movw   $0x2e72,0x40(%rbx)
  402629:	c6 43 42 00          	movb   $0x0,0x42(%rbx)
  40262d:	89 ef                	mov    %ebp,%edi
  40262f:	e8 7c e6 ff ff       	callq  400cb0 <close@plt>
  402634:	b8 ff ff ff ff       	mov    $0xffffffff,%eax
  402639:	e9 c2 03 00 00       	jmpq   402a00 <submitr+0x709>
  40263e:	4d 89 e1             	mov    %r12,%r9
  402641:	4c 8d 84 24 20 40 00 	lea    0x4020(%rsp),%r8
  402648:	00 
  402649:	4c 89 f9             	mov    %r15,%rcx
  40264c:	4c 89 f2             	mov    %r14,%rdx
  40264f:	be a8 35 40 00       	mov    $0x4035a8,%esi
  402654:	48 8d bc 24 20 60 00 	lea    0x6020(%rsp),%rdi
  40265b:	00 
  40265c:	b8 00 00 00 00       	mov    $0x0,%eax
  402661:	e8 7a e7 ff ff       	callq  400de0 <sprintf@plt>
  402666:	48 8d bc 24 20 60 00 	lea    0x6020(%rsp),%rdi
  40266d:	00 
  40266e:	b8 00 00 00 00       	mov    $0x0,%eax
  402673:	48 c7 c1 ff ff ff ff 	mov    $0xffffffffffffffff,%rcx
  40267a:	f2 ae                	repnz scas %es:(%rdi),%al
  40267c:	48 f7 d1             	not    %rcx
  40267f:	48 8d 51 ff          	lea    -0x1(%rcx),%rdx
  402683:	48 8d b4 24 20 60 00 	lea    0x6020(%rsp),%rsi
  40268a:	00 
  40268b:	89 ef                	mov    %ebp,%edi
  40268d:	e8 ff fa ff ff       	callq  402191 <rio_writen>
  402692:	48 85 c0             	test   %rax,%rax
  402695:	79 6e                	jns    402705 <submitr+0x40e>
  402697:	48 b8 45 72 72 6f 72 	movabs $0x43203a726f727245,%rax
  40269e:	3a 20 43 
  4026a1:	48 89 03             	mov    %rax,(%rbx)
  4026a4:	48 b8 6c 69 65 6e 74 	movabs $0x6e7520746e65696c,%rax
  4026ab:	20 75 6e 
  4026ae:	48 89 43 08          	mov    %rax,0x8(%rbx)
  4026b2:	48 b8 61 62 6c 65 20 	movabs $0x206f7420656c6261,%rax
  4026b9:	74 6f 20 
  4026bc:	48 89 43 10          	mov    %rax,0x10(%rbx)
  4026c0:	48 b8 77 72 69 74 65 	movabs $0x6f74206574697277,%rax
  4026c7:	20 74 6f 
  4026ca:	48 89 43 18          	mov    %rax,0x18(%rbx)
  4026ce:	48 b8 20 74 68 65 20 	movabs $0x7365722065687420,%rax
  4026d5:	72 65 73 
  4026d8:	48 89 43 20          	mov    %rax,0x20(%rbx)
  4026dc:	48 b8 75 6c 74 20 73 	movabs $0x7672657320746c75,%rax
  4026e3:	65 72 76 
  4026e6:	48 89 43 28          	mov    %rax,0x28(%rbx)
  4026ea:	66 c7 43 30 65 72    	movw   $0x7265,0x30(%rbx)
  4026f0:	c6 43 32 00          	movb   $0x0,0x32(%rbx)
  4026f4:	89 ef                	mov    %ebp,%edi
  4026f6:	e8 b5 e5 ff ff       	callq  400cb0 <close@plt>
  4026fb:	b8 ff ff ff ff       	mov    $0xffffffff,%eax
  402700:	e9 fb 02 00 00       	jmpq   402a00 <submitr+0x709>
  402705:	89 ee                	mov    %ebp,%esi
  402707:	48 8d bc 24 20 80 00 	lea    0x8020(%rsp),%rdi
  40270e:	00 
  40270f:	e8 6c f9 ff ff       	callq  402080 <rio_readinitb>
  402714:	ba 00 20 00 00       	mov    $0x2000,%edx
  402719:	48 8d b4 24 20 60 00 	lea    0x6020(%rsp),%rsi
  402720:	00 
  402721:	48 8d bc 24 20 80 00 	lea    0x8020(%rsp),%rdi
  402728:	00 
  402729:	e8 46 fb ff ff       	callq  402274 <rio_readlineb>
  40272e:	48 85 c0             	test   %rax,%rax
  402731:	7f 7d                	jg     4027b0 <submitr+0x4b9>
  402733:	48 b8 45 72 72 6f 72 	movabs $0x43203a726f727245,%rax
  40273a:	3a 20 43 
  40273d:	48 89 03             	mov    %rax,(%rbx)
  402740:	48 b8 6c 69 65 6e 74 	movabs $0x6e7520746e65696c,%rax
  402747:	20 75 6e 
  40274a:	48 89 43 08          	mov    %rax,0x8(%rbx)
  40274e:	48 b8 61 62 6c 65 20 	movabs $0x206f7420656c6261,%rax
  402755:	74 6f 20 
  402758:	48 89 43 10          	mov    %rax,0x10(%rbx)
  40275c:	48 b8 72 65 61 64 20 	movabs $0x7269662064616572,%rax
  402763:	66 69 72 
  402766:	48 89 43 18          	mov    %rax,0x18(%rbx)
  40276a:	48 b8 73 74 20 68 65 	movabs $0x6564616568207473,%rax
  402771:	61 64 65 
  402774:	48 89 43 20          	mov    %rax,0x20(%rbx)
  402778:	48 b8 72 20 66 72 6f 	movabs $0x72206d6f72662072,%rax
  40277f:	6d 20 72 
  402782:	48 89 43 28          	mov    %rax,0x28(%rbx)
  402786:	48 b8 65 73 75 6c 74 	movabs $0x657320746c757365,%rax
  40278d:	20 73 65 
  402790:	48 89 43 30          	mov    %rax,0x30(%rbx)
  402794:	c7 43 38 72 76 65 72 	movl   $0x72657672,0x38(%rbx)
  40279b:	c6 43 3c 00          	movb   $0x0,0x3c(%rbx)
  40279f:	89 ef                	mov    %ebp,%edi
  4027a1:	e8 0a e5 ff ff       	callq  400cb0 <close@plt>
  4027a6:	b8 ff ff ff ff       	mov    $0xffffffff,%eax
  4027ab:	e9 50 02 00 00       	jmpq   402a00 <submitr+0x709>
  4027b0:	4c 8d 44 24 10       	lea    0x10(%rsp),%r8
  4027b5:	48 8d 8c 24 1c 20 00 	lea    0x201c(%rsp),%rcx
  4027bc:	00 
  4027bd:	48 8d 94 24 20 20 00 	lea    0x2020(%rsp),%rdx
  4027c4:	00 
  4027c5:	be 1f 36 40 00       	mov    $0x40361f,%esi
  4027ca:	48 8d bc 24 20 60 00 	lea    0x6020(%rsp),%rdi
  4027d1:	00 
  4027d2:	b8 00 00 00 00       	mov    $0x0,%eax
  4027d7:	e8 94 e5 ff ff       	callq  400d70 <__isoc99_sscanf@plt>
  4027dc:	e9 98 00 00 00       	jmpq   402879 <submitr+0x582>
  4027e1:	ba 00 20 00 00       	mov    $0x2000,%edx
  4027e6:	48 8d b4 24 20 60 00 	lea    0x6020(%rsp),%rsi
  4027ed:	00 
  4027ee:	48 8d bc 24 20 80 00 	lea    0x8020(%rsp),%rdi
  4027f5:	00 
  4027f6:	e8 79 fa ff ff       	callq  402274 <rio_readlineb>
  4027fb:	48 85 c0             	test   %rax,%rax
  4027fe:	7f 79                	jg     402879 <submitr+0x582>
  402800:	48 b8 45 72 72 6f 72 	movabs $0x43203a726f727245,%rax
  402807:	3a 20 43 
  40280a:	48 89 03             	mov    %rax,(%rbx)
  40280d:	48 b8 6c 69 65 6e 74 	movabs $0x6e7520746e65696c,%rax
  402814:	20 75 6e 
  402817:	48 89 43 08          	mov    %rax,0x8(%rbx)
  40281b:	48 b8 61 62 6c 65 20 	movabs $0x206f7420656c6261,%rax
  402822:	74 6f 20 
  402825:	48 89 43 10          	mov    %rax,0x10(%rbx)
  402829:	48 b8 72 65 61 64 20 	movabs $0x6165682064616572,%rax
  402830:	68 65 61 
  402833:	48 89 43 18          	mov    %rax,0x18(%rbx)
  402837:	48 b8 64 65 72 73 20 	movabs $0x6f72662073726564,%rax
  40283e:	66 72 6f 
  402841:	48 89 43 20          	mov    %rax,0x20(%rbx)
  402845:	48 b8 6d 20 74 68 65 	movabs $0x657220656874206d,%rax
  40284c:	20 72 65 
  40284f:	48 89 43 28          	mov    %rax,0x28(%rbx)
  402853:	48 b8 73 75 6c 74 20 	movabs $0x72657320746c7573,%rax
  40285a:	73 65 72 
  40285d:	48 89 43 30          	mov    %rax,0x30(%rbx)
  402861:	c7 43 38 76 65 72 00 	movl   $0x726576,0x38(%rbx)
  402868:	89 ef                	mov    %ebp,%edi
  40286a:	e8 41 e4 ff ff       	callq  400cb0 <close@plt>
  40286f:	b8 ff ff ff ff       	mov    $0xffffffff,%eax
  402874:	e9 87 01 00 00       	jmpq   402a00 <submitr+0x709>
  402879:	0f b6 84 24 20 60 00 	movzbl 0x6020(%rsp),%eax
  402880:	00 
  402881:	83 e8 0d             	sub    $0xd,%eax
  402884:	75 15                	jne    40289b <submitr+0x5a4>
  402886:	0f b6 84 24 21 60 00 	movzbl 0x6021(%rsp),%eax
  40288d:	00 
  40288e:	83 e8 0a             	sub    $0xa,%eax
  402891:	75 08                	jne    40289b <submitr+0x5a4>
  402893:	0f b6 84 24 22 60 00 	movzbl 0x6022(%rsp),%eax
  40289a:	00 
  40289b:	85 c0                	test   %eax,%eax
  40289d:	0f 85 3e ff ff ff    	jne    4027e1 <submitr+0x4ea>
  4028a3:	ba 00 20 00 00       	mov    $0x2000,%edx
  4028a8:	48 8d b4 24 20 60 00 	lea    0x6020(%rsp),%rsi
  4028af:	00 
  4028b0:	48 8d bc 24 20 80 00 	lea    0x8020(%rsp),%rdi
  4028b7:	00 
  4028b8:	e8 b7 f9 ff ff       	callq  402274 <rio_readlineb>
  4028bd:	48 85 c0             	test   %rax,%rax
  4028c0:	0f 8f 83 00 00 00    	jg     402949 <submitr+0x652>
  4028c6:	48 b8 45 72 72 6f 72 	movabs $0x43203a726f727245,%rax
  4028cd:	3a 20 43 
  4028d0:	48 89 03             	mov    %rax,(%rbx)
  4028d3:	48 b8 6c 69 65 6e 74 	movabs $0x6e7520746e65696c,%rax
  4028da:	20 75 6e 
  4028dd:	48 89 43 08          	mov    %rax,0x8(%rbx)
  4028e1:	48 b8 61 62 6c 65 20 	movabs $0x206f7420656c6261,%rax
  4028e8:	74 6f 20 
  4028eb:	48 89 43 10          	mov    %rax,0x10(%rbx)
  4028ef:	48 b8 72 65 61 64 20 	movabs $0x6174732064616572,%rax
  4028f6:	73 74 61 
  4028f9:	48 89 43 18          	mov    %rax,0x18(%rbx)
  4028fd:	48 b8 74 75 73 20 6d 	movabs $0x7373656d20737574,%rax
  402904:	65 73 73 
  402907:	48 89 43 20          	mov    %rax,0x20(%rbx)
  40290b:	48 b8 61 67 65 20 66 	movabs $0x6d6f726620656761,%rax
  402912:	72 6f 6d 
  402915:	48 89 43 28          	mov    %rax,0x28(%rbx)
  402919:	48 b8 20 72 65 73 75 	movabs $0x20746c7573657220,%rax
  402920:	6c 74 20 
  402923:	48 89 43 30          	mov    %rax,0x30(%rbx)
  402927:	c7 43 38 73 65 72 76 	movl   $0x76726573,0x38(%rbx)
  40292e:	66 c7 43 3c 65 72    	movw   $0x7265,0x3c(%rbx)
  402934:	c6 43 3e 00          	movb   $0x0,0x3e(%rbx)
  402938:	89 ef                	mov    %ebp,%edi
  40293a:	e8 71 e3 ff ff       	callq  400cb0 <close@plt>
  40293f:	b8 ff ff ff ff       	mov    $0xffffffff,%eax
  402944:	e9 b7 00 00 00       	jmpq   402a00 <submitr+0x709>
  402949:	8b 94 24 1c 20 00 00 	mov    0x201c(%rsp),%edx
  402950:	81 fa c8 00 00 00    	cmp    $0xc8,%edx
  402956:	74 28                	je     402980 <submitr+0x689>
  402958:	48 8d 4c 24 10       	lea    0x10(%rsp),%rcx
  40295d:	be e8 35 40 00       	mov    $0x4035e8,%esi
  402962:	48 89 df             	mov    %rbx,%rdi
  402965:	b8 00 00 00 00       	mov    $0x0,%eax
  40296a:	e8 71 e4 ff ff       	callq  400de0 <sprintf@plt>
  40296f:	89 ef                	mov    %ebp,%edi
  402971:	e8 3a e3 ff ff       	callq  400cb0 <close@plt>
  402976:	b8 ff ff ff ff       	mov    $0xffffffff,%eax
  40297b:	e9 80 00 00 00       	jmpq   402a00 <submitr+0x709>
  402980:	48 8d b4 24 20 60 00 	lea    0x6020(%rsp),%rsi
  402987:	00 
  402988:	48 89 df             	mov    %rbx,%rdi
  40298b:	e8 b0 e2 ff ff       	callq  400c40 <strcpy@plt>
  402990:	89 ef                	mov    %ebp,%edi
  402992:	e8 19 e3 ff ff       	callq  400cb0 <close@plt>
  402997:	0f b6 03             	movzbl (%rbx),%eax
  40299a:	83 e8 4f             	sub    $0x4f,%eax
  40299d:	75 18                	jne    4029b7 <submitr+0x6c0>
  40299f:	0f b6 53 01          	movzbl 0x1(%rbx),%edx
  4029a3:	83 ea 4b             	sub    $0x4b,%edx
  4029a6:	75 11                	jne    4029b9 <submitr+0x6c2>
  4029a8:	0f b6 53 02          	movzbl 0x2(%rbx),%edx
  4029ac:	83 ea 0a             	sub    $0xa,%edx
  4029af:	75 08                	jne    4029b9 <submitr+0x6c2>
  4029b1:	0f b6 53 03          	movzbl 0x3(%rbx),%edx
  4029b5:	eb 02                	jmp    4029b9 <submitr+0x6c2>
  4029b7:	89 c2                	mov    %eax,%edx
  4029b9:	85 d2                	test   %edx,%edx
  4029bb:	74 30                	je     4029ed <submitr+0x6f6>
  4029bd:	bf 30 36 40 00       	mov    $0x403630,%edi
  4029c2:	b9 05 00 00 00       	mov    $0x5,%ecx
  4029c7:	48 89 de             	mov    %rbx,%rsi
  4029ca:	f3 a6                	repz cmpsb %es:(%rdi),%ds:(%rsi)
  4029cc:	0f 97 c1             	seta   %cl
  4029cf:	0f 92 c2             	setb   %dl
  4029d2:	38 d1                	cmp    %dl,%cl
  4029d4:	74 1e                	je     4029f4 <submitr+0x6fd>
  4029d6:	85 c0                	test   %eax,%eax
  4029d8:	75 0d                	jne    4029e7 <submitr+0x6f0>
  4029da:	0f b6 43 01          	movzbl 0x1(%rbx),%eax
  4029de:	83 e8 4b             	sub    $0x4b,%eax
  4029e1:	75 04                	jne    4029e7 <submitr+0x6f0>
  4029e3:	0f b6 43 02          	movzbl 0x2(%rbx),%eax
  4029e7:	85 c0                	test   %eax,%eax
  4029e9:	75 10                	jne    4029fb <submitr+0x704>
  4029eb:	eb 13                	jmp    402a00 <submitr+0x709>
  4029ed:	b8 00 00 00 00       	mov    $0x0,%eax
  4029f2:	eb 0c                	jmp    402a00 <submitr+0x709>
  4029f4:	b8 00 00 00 00       	mov    $0x0,%eax
  4029f9:	eb 05                	jmp    402a00 <submitr+0x709>
  4029fb:	b8 ff ff ff ff       	mov    $0xffffffff,%eax
  402a00:	48 81 c4 48 a0 00 00 	add    $0xa048,%rsp
  402a07:	5b                   	pop    %rbx
  402a08:	5d                   	pop    %rbp
  402a09:	41 5c                	pop    %r12
  402a0b:	41 5d                	pop    %r13
  402a0d:	41 5e                	pop    %r14
  402a0f:	41 5f                	pop    %r15
  402a11:	c3                   	retq   

0000000000402a12 <init_timeout>:
  402a12:	53                   	push   %rbx
  402a13:	89 fb                	mov    %edi,%ebx
  402a15:	85 ff                	test   %edi,%edi
  402a17:	74 1f                	je     402a38 <init_timeout+0x26>
  402a19:	85 ff                	test   %edi,%edi
  402a1b:	79 05                	jns    402a22 <init_timeout+0x10>
  402a1d:	bb 00 00 00 00       	mov    $0x0,%ebx
  402a22:	be 92 20 40 00       	mov    $0x402092,%esi
  402a27:	bf 0e 00 00 00       	mov    $0xe,%edi
  402a2c:	e8 af e2 ff ff       	callq  400ce0 <signal@plt>
  402a31:	89 df                	mov    %ebx,%edi
  402a33:	e8 68 e2 ff ff       	callq  400ca0 <alarm@plt>
  402a38:	5b                   	pop    %rbx
  402a39:	c3                   	retq   

0000000000402a3a <init_driver>:
  402a3a:	55                   	push   %rbp
  402a3b:	53                   	push   %rbx
  402a3c:	48 83 ec 18          	sub    $0x18,%rsp
  402a40:	48 89 fd             	mov    %rdi,%rbp
  402a43:	be 01 00 00 00       	mov    $0x1,%esi
  402a48:	bf 0d 00 00 00       	mov    $0xd,%edi
  402a4d:	e8 8e e2 ff ff       	callq  400ce0 <signal@plt>
  402a52:	be 01 00 00 00       	mov    $0x1,%esi
  402a57:	bf 1d 00 00 00       	mov    $0x1d,%edi
  402a5c:	e8 7f e2 ff ff       	callq  400ce0 <signal@plt>
  402a61:	be 01 00 00 00       	mov    $0x1,%esi
  402a66:	bf 1d 00 00 00       	mov    $0x1d,%edi
  402a6b:	e8 70 e2 ff ff       	callq  400ce0 <signal@plt>
  402a70:	ba 00 00 00 00       	mov    $0x0,%edx
  402a75:	be 01 00 00 00       	mov    $0x1,%esi
  402a7a:	bf 02 00 00 00       	mov    $0x2,%edi
  402a7f:	e8 8c e3 ff ff       	callq  400e10 <socket@plt>
  402a84:	89 c3                	mov    %eax,%ebx
  402a86:	85 c0                	test   %eax,%eax
  402a88:	79 4f                	jns    402ad9 <init_driver+0x9f>
  402a8a:	48 b8 45 72 72 6f 72 	movabs $0x43203a726f727245,%rax
  402a91:	3a 20 43 
  402a94:	48 89 45 00          	mov    %rax,0x0(%rbp)
  402a98:	48 b8 6c 69 65 6e 74 	movabs $0x6e7520746e65696c,%rax
  402a9f:	20 75 6e 
  402aa2:	48 89 45 08          	mov    %rax,0x8(%rbp)
  402aa6:	48 b8 61 62 6c 65 20 	movabs $0x206f7420656c6261,%rax
  402aad:	74 6f 20 
  402ab0:	48 89 45 10          	mov    %rax,0x10(%rbp)
  402ab4:	48 b8 63 72 65 61 74 	movabs $0x7320657461657263,%rax
  402abb:	65 20 73 
  402abe:	48 89 45 18          	mov    %rax,0x18(%rbp)
  402ac2:	c7 45 20 6f 63 6b 65 	movl   $0x656b636f,0x20(%rbp)
  402ac9:	66 c7 45 24 74 00    	movw   $0x74,0x24(%rbp)
  402acf:	b8 ff ff ff ff       	mov    $0xffffffff,%eax
  402ad4:	e9 23 01 00 00       	jmpq   402bfc <init_driver+0x1c2>
  402ad9:	bf 78 30 40 00       	mov    $0x403078,%edi
  402ade:	e8 0d e2 ff ff       	callq  400cf0 <gethostbyname@plt>
  402ae3:	48 85 c0             	test   %rax,%rax
  402ae6:	75 68                	jne    402b50 <init_driver+0x116>
  402ae8:	48 b8 45 72 72 6f 72 	movabs $0x44203a726f727245,%rax
  402aef:	3a 20 44 
  402af2:	48 89 45 00          	mov    %rax,0x0(%rbp)
  402af6:	48 b8 4e 53 20 69 73 	movabs $0x6e7520736920534e,%rax
  402afd:	20 75 6e 
  402b00:	48 89 45 08          	mov    %rax,0x8(%rbp)
  402b04:	48 b8 61 62 6c 65 20 	movabs $0x206f7420656c6261,%rax
  402b0b:	74 6f 20 
  402b0e:	48 89 45 10          	mov    %rax,0x10(%rbp)
  402b12:	48 b8 72 65 73 6f 6c 	movabs $0x2065766c6f736572,%rax
  402b19:	76 65 20 
  402b1c:	48 89 45 18          	mov    %rax,0x18(%rbp)
  402b20:	48 b8 73 65 72 76 65 	movabs $0x6120726576726573,%rax
  402b27:	72 20 61 
  402b2a:	48 89 45 20          	mov    %rax,0x20(%rbp)
  402b2e:	c7 45 28 64 64 72 65 	movl   $0x65726464,0x28(%rbp)
  402b35:	66 c7 45 2c 73 73    	movw   $0x7373,0x2c(%rbp)
  402b3b:	c6 45 2e 00          	movb   $0x0,0x2e(%rbp)
  402b3f:	89 df                	mov    %ebx,%edi
  402b41:	e8 6a e1 ff ff       	callq  400cb0 <close@plt>
  402b46:	b8 ff ff ff ff       	mov    $0xffffffff,%eax
  402b4b:	e9 ac 00 00 00       	jmpq   402bfc <init_driver+0x1c2>
  402b50:	48 c7 04 24 00 00 00 	movq   $0x0,(%rsp)
  402b57:	00 
  402b58:	48 c7 44 24 08 00 00 	movq   $0x0,0x8(%rsp)
  402b5f:	00 00 
  402b61:	66 c7 04 24 02 00    	movw   $0x2,(%rsp)
  402b67:	48 8b 48 18          	mov    0x18(%rax),%rcx
  402b6b:	48 63 50 14          	movslq 0x14(%rax),%rdx
  402b6f:	48 8d 74 24 04       	lea    0x4(%rsp),%rsi
  402b74:	48 8b 39             	mov    (%rcx),%rdi
  402b77:	e8 14 e2 ff ff       	callq  400d90 <bcopy@plt>
  402b7c:	66 c7 44 24 02 47 26 	movw   $0x2647,0x2(%rsp)
  402b83:	ba 10 00 00 00       	mov    $0x10,%edx
  402b88:	48 89 e6             	mov    %rsp,%rsi
  402b8b:	89 df                	mov    %ebx,%edi
  402b8d:	e8 6e e2 ff ff       	callq  400e00 <connect@plt>
  402b92:	85 c0                	test   %eax,%eax
  402b94:	79 50                	jns    402be6 <init_driver+0x1ac>
  402b96:	48 b8 45 72 72 6f 72 	movabs $0x55203a726f727245,%rax
  402b9d:	3a 20 55 
  402ba0:	48 89 45 00          	mov    %rax,0x0(%rbp)
  402ba4:	48 b8 6e 61 62 6c 65 	movabs $0x6f7420656c62616e,%rax
  402bab:	20 74 6f 
  402bae:	48 89 45 08          	mov    %rax,0x8(%rbp)
  402bb2:	48 b8 20 63 6f 6e 6e 	movabs $0x7463656e6e6f6320,%rax
  402bb9:	65 63 74 
  402bbc:	48 89 45 10          	mov    %rax,0x10(%rbp)
  402bc0:	48 b8 20 74 6f 20 73 	movabs $0x76726573206f7420,%rax
  402bc7:	65 72 76 
  402bca:	48 89 45 18          	mov    %rax,0x18(%rbp)
  402bce:	66 c7 45 20 65 72    	movw   $0x7265,0x20(%rbp)
  402bd4:	c6 45 22 00          	movb   $0x0,0x22(%rbp)
  402bd8:	89 df                	mov    %ebx,%edi
  402bda:	e8 d1 e0 ff ff       	callq  400cb0 <close@plt>
  402bdf:	b8 ff ff ff ff       	mov    $0xffffffff,%eax
  402be4:	eb 16                	jmp    402bfc <init_driver+0x1c2>
  402be6:	89 df                	mov    %ebx,%edi
  402be8:	e8 c3 e0 ff ff       	callq  400cb0 <close@plt>
  402bed:	66 c7 45 00 4f 4b    	movw   $0x4b4f,0x0(%rbp)
  402bf3:	c6 45 02 00          	movb   $0x0,0x2(%rbp)
  402bf7:	b8 00 00 00 00       	mov    $0x0,%eax
  402bfc:	48 83 c4 18          	add    $0x18,%rsp
  402c00:	5b                   	pop    %rbx
  402c01:	5d                   	pop    %rbp
  402c02:	c3                   	retq   

0000000000402c03 <driver_post>:
  402c03:	53                   	push   %rbx
  402c04:	48 83 ec 10          	sub    $0x10,%rsp
  402c08:	4c 89 cb             	mov    %r9,%rbx
  402c0b:	45 85 c0             	test   %r8d,%r8d
  402c0e:	74 22                	je     402c32 <driver_post+0x2f>
  402c10:	48 89 ce             	mov    %rcx,%rsi
  402c13:	bf 35 36 40 00       	mov    $0x403635,%edi
  402c18:	b8 00 00 00 00       	mov    $0x0,%eax
  402c1d:	e8 5e e0 ff ff       	callq  400c80 <printf@plt>
  402c22:	66 c7 03 4f 4b       	movw   $0x4b4f,(%rbx)
  402c27:	c6 43 02 00          	movb   $0x0,0x2(%rbx)
  402c2b:	b8 00 00 00 00       	mov    $0x0,%eax
  402c30:	eb 39                	jmp    402c6b <driver_post+0x68>
  402c32:	48 85 ff             	test   %rdi,%rdi
  402c35:	74 26                	je     402c5d <driver_post+0x5a>
  402c37:	80 3f 00             	cmpb   $0x0,(%rdi)
  402c3a:	74 21                	je     402c5d <driver_post+0x5a>
  402c3c:	4c 89 0c 24          	mov    %r9,(%rsp)
  402c40:	49 89 c9             	mov    %rcx,%r9
  402c43:	49 89 d0             	mov    %rdx,%r8
  402c46:	48 89 f9             	mov    %rdi,%rcx
  402c49:	48 89 f2             	mov    %rsi,%rdx
  402c4c:	be 26 47 00 00       	mov    $0x4726,%esi
  402c51:	bf 78 30 40 00       	mov    $0x403078,%edi
  402c56:	e8 9c f6 ff ff       	callq  4022f7 <submitr>
  402c5b:	eb 0e                	jmp    402c6b <driver_post+0x68>
  402c5d:	66 c7 03 4f 4b       	movw   $0x4b4f,(%rbx)
  402c62:	c6 43 02 00          	movb   $0x0,0x2(%rbx)
  402c66:	b8 00 00 00 00       	mov    $0x0,%eax
  402c6b:	48 83 c4 10          	add    $0x10,%rsp
  402c6f:	5b                   	pop    %rbx
  402c70:	c3                   	retq   

0000000000402c71 <check>:
  402c71:	89 f8                	mov    %edi,%eax
  402c73:	c1 e8 1c             	shr    $0x1c,%eax
  402c76:	85 c0                	test   %eax,%eax
  402c78:	74 1d                	je     402c97 <check+0x26>
  402c7a:	b9 00 00 00 00       	mov    $0x0,%ecx
  402c7f:	eb 0b                	jmp    402c8c <check+0x1b>
  402c81:	89 f8                	mov    %edi,%eax
  402c83:	d3 e8                	shr    %cl,%eax
  402c85:	3c 0a                	cmp    $0xa,%al
  402c87:	74 14                	je     402c9d <check+0x2c>
  402c89:	83 c1 08             	add    $0x8,%ecx
  402c8c:	83 f9 1f             	cmp    $0x1f,%ecx
  402c8f:	7e f0                	jle    402c81 <check+0x10>
  402c91:	b8 01 00 00 00       	mov    $0x1,%eax
  402c96:	c3                   	retq   
  402c97:	b8 00 00 00 00       	mov    $0x0,%eax
  402c9c:	c3                   	retq   
  402c9d:	b8 00 00 00 00       	mov    $0x0,%eax
  402ca2:	c3                   	retq   

0000000000402ca3 <gencookie>:
  402ca3:	53                   	push   %rbx
  402ca4:	83 c7 01             	add    $0x1,%edi
  402ca7:	e8 74 df ff ff       	callq  400c20 <srandom@plt>
  402cac:	e8 9f e0 ff ff       	callq  400d50 <random@plt>
  402cb1:	89 c3                	mov    %eax,%ebx
  402cb3:	89 c7                	mov    %eax,%edi
  402cb5:	e8 b7 ff ff ff       	callq  402c71 <check>
  402cba:	85 c0                	test   %eax,%eax
  402cbc:	74 ee                	je     402cac <gencookie+0x9>
  402cbe:	89 d8                	mov    %ebx,%eax
  402cc0:	5b                   	pop    %rbx
  402cc1:	c3                   	retq   
  402cc2:	66 2e 0f 1f 84 00 00 	nopw   %cs:0x0(%rax,%rax,1)
  402cc9:	00 00 00 
  402ccc:	0f 1f 40 00          	nopl   0x0(%rax)

0000000000402cd0 <__libc_csu_init>:
  402cd0:	41 57                	push   %r15
  402cd2:	41 89 ff             	mov    %edi,%r15d
  402cd5:	41 56                	push   %r14
  402cd7:	49 89 f6             	mov    %rsi,%r14
  402cda:	41 55                	push   %r13
  402cdc:	49 89 d5             	mov    %rdx,%r13
  402cdf:	41 54                	push   %r12
  402ce1:	4c 8d 25 28 21 20 00 	lea    0x202128(%rip),%r12        # 604e10 <__frame_dummy_init_array_entry>
  402ce8:	55                   	push   %rbp
  402ce9:	48 8d 2d 28 21 20 00 	lea    0x202128(%rip),%rbp        # 604e18 <__init_array_end>
  402cf0:	53                   	push   %rbx
  402cf1:	4c 29 e5             	sub    %r12,%rbp
  402cf4:	31 db                	xor    %ebx,%ebx
  402cf6:	48 c1 fd 03          	sar    $0x3,%rbp
  402cfa:	48 83 ec 08          	sub    $0x8,%rsp
  402cfe:	e8 c5 de ff ff       	callq  400bc8 <_init>
  402d03:	48 85 ed             	test   %rbp,%rbp
  402d06:	74 1e                	je     402d26 <__libc_csu_init+0x56>
  402d08:	0f 1f 84 00 00 00 00 	nopl   0x0(%rax,%rax,1)
  402d0f:	00 
  402d10:	4c 89 ea             	mov    %r13,%rdx
  402d13:	4c 89 f6             	mov    %r14,%rsi
  402d16:	44 89 ff             	mov    %r15d,%edi
  402d19:	41 ff 14 dc          	callq  *(%r12,%rbx,8)
  402d1d:	48 83 c3 01          	add    $0x1,%rbx
  402d21:	48 39 eb             	cmp    %rbp,%rbx
  402d24:	75 ea                	jne    402d10 <__libc_csu_init+0x40>
  402d26:	48 83 c4 08          	add    $0x8,%rsp
  402d2a:	5b                   	pop    %rbx
  402d2b:	5d                   	pop    %rbp
  402d2c:	41 5c                	pop    %r12
  402d2e:	41 5d                	pop    %r13
  402d30:	41 5e                	pop    %r14
  402d32:	41 5f                	pop    %r15
  402d34:	c3                   	retq   
  402d35:	90                   	nop
  402d36:	66 2e 0f 1f 84 00 00 	nopw   %cs:0x0(%rax,%rax,1)
  402d3d:	00 00 00 

0000000000402d40 <__libc_csu_fini>:
  402d40:	f3 c3                	repz retq 

Disassembly of section .fini:

0000000000402d44 <_fini>:
  402d44:	48 83 ec 08          	sub    $0x8,%rsp
  402d48:	48 83 c4 08          	add    $0x8,%rsp
  402d4c:	c3                   	retq   
